

Microchip Technology PIC PRO Macro Assembler V1.45 build -152302408 
                                                                                               Tue May 12 16:11:20 2026

Microchip Technology Omniscient Code Generator v1.45 (PRO mode) build 201711160504
     1                           	processor	SC8F072
     2                           	opt	pw 120
     3                           	opt	pm
     4                           	psect	idataBANK0,global,class=CODE,delta=2
     5                           	psect	strings,global,class=STRING,delta=2
     6                           	psect	cinit,global,class=CODE,merge=1,delta=2
     7                           	psect	bssBANK0,global,class=BANK0,space=1,delta=1
     8                           	psect	dataBANK0,global,class=BANK0,space=1,delta=1
     9                           	psect	bssBANK1,global,class=BANK1,space=1,delta=1
    10                           	psect	clrtext,global,class=CODE,delta=2
    11                           	psect	cstackCOMMON,global,class=COMMON,space=1,delta=1
    12                           	psect	cstackBANK0,global,class=BANK0,space=1,delta=1
    13                           	psect	maintext,global,class=CODE,split=1,delta=2
    14                           	psect	text1,local,class=CODE,merge=1,delta=2
    15                           	psect	text2,local,class=CODE,merge=1,delta=2
    16                           	psect	text3,local,class=CODE,merge=1,delta=2
    17                           	psect	text4,local,class=CODE,merge=1,delta=2
    18                           	psect	text5,local,class=CODE,merge=1,delta=2
    19                           	psect	text6,local,class=CODE,merge=1,delta=2
    20                           	psect	text7,local,class=CODE,merge=1,delta=2
    21                           	psect	text8,local,class=CODE,merge=1,delta=2
    22                           	psect	text9,local,class=CODE,merge=1,delta=2
    23                           	psect	text10,local,class=CODE,merge=1,delta=2
    24                           	psect	text11,local,class=CODE,merge=1,delta=2
    25                           	psect	text12,local,class=CODE,merge=1,delta=2
    26                           	psect	text13,local,class=CODE,merge=1,delta=2
    27                           	psect	swtext1,local,class=CONST,delta=2
    28                           	psect	text14,local,class=CODE,merge=1,delta=2
    29                           	psect	text15,local,class=CODE,merge=1,delta=2
    30                           	psect	swtext2,local,class=CONST,delta=2
    31                           	psect	text16,local,class=CODE,merge=1,delta=2
    32                           	psect	swtext3,local,class=CONST,delta=2
    33                           	psect	swtext4,local,class=CONST,delta=2
    34                           	psect	text17,local,class=CODE,merge=1,delta=2
    35                           	psect	text18,local,class=CODE,merge=1,delta=2,group=1
    36                           	psect	text19,local,class=CODE,merge=1,delta=2
    37                           	psect	text20,local,class=CODE,merge=1,delta=2,group=1
    38                           	psect	text21,local,class=CODE,merge=1,delta=2
    39                           	psect	text22,local,class=CODE,merge=1,delta=2
    40                           	psect	text23,local,class=CODE,merge=1,delta=2
    41                           	psect	text24,local,class=CODE,merge=1,delta=2
    42                           	psect	text25,local,class=CODE,merge=1,delta=2
    43                           	psect	text26,local,class=CODE,merge=1,delta=2
    44                           	psect	text27,local,class=CODE,merge=1,delta=2
    45                           	psect	text28,local,class=CODE,merge=1,delta=2
    46                           	psect	text29,local,class=CODE,merge=1,delta=2,group=1
    47                           	psect	text30,local,class=CODE,merge=1,delta=2,group=1
    48                           	psect	text31,local,class=CODE,merge=1,delta=2,group=1
    49                           	psect	functab,global,class=ENTRY,delta=2
    50                           	psect	pa_nodes0,global,class=CODE,delta=2
    51                           	dabs	1,0x7E,2
    52  0000                     
    53                           ; Version 1.45
    54                           ; Generated 16/11/2017 GMT
    55                           ; 
    56                           ; Copyright © 2017, Microchip Technology Inc. and its subsidiaries ("Microchip")
    57                           ; All rights reserved.
    58                           ; 
    59                           ; This software is developed by Microchip Technology Inc. and its subsidiaries ("Microch
      +                          ip").
    60                           ; 
    61                           ; Redistribution and use in source and binary forms, with or without modification, are
    62                           ; permitted provided that the following conditions are met:
    63                           ; 
    64                           ;     1. Redistributions of source code must retain the above copyright notice, this lis
      +                          t of
    65                           ;        conditions and the following disclaimer.
    66                           ; 
    67                           ;     2. Redistributions in binary form must reproduce the above copyright notice, this 
      +                          list
    68                           ;        of conditions and the following disclaimer in the documentation and/or other
    69                           ;        materials provided with the distribution.
    70                           ; 
    71                           ;     3. Microchip's name may not be used to endorse or promote products derived from th
      +                          is
    72                           ;        software without specific prior written permission.
    73                           ; 
    74                           ; THIS SOFTWARE IS PROVIDED BY MICROCHIP "AS IS" AND ANY EXPRESS OR IMPLIED WARRANTIES,
    75                           ; INCLUDING, BUT NOT LIMITED TO, THE IMPLIED WARRANTIES OF MERCHANTABILITY AND FITNESS F
      +                          OR
    76                           ; PURPOSE ARE DISCLAIMED.  IN NO EVENT SHALL MICROCHIP BE LIABLE FOR ANY DIRECT, INDIREC
      +                          T,
    77                           ; INCIDENTAL, SPECIAL, EXEMPLARY, OR CONSEQUENTIAL DAMAGES (INCLUDING BUT NOT LIMITED TO
    78                           ; PROCUREMENT OF SUBSTITUTE GOODS OR SERVICES; LOSS OF USE, DATA OR PROFITS; OR BUSINESS
    79                           ; INTERRUPTION) HOWSOEVER CAUSED AND ON ANY THEORY OF LIABILITY, WHETHER IN CONTRACT, ST
      +                          RICT
    80                           ; LIABILITY, OR TORT (INCLUDING NEGLIGENCE OR OTHERWISE) ARISING IN ANY WAY OUT OF THE U
      +                          SE OF
    81                           ; THIS SOFTWARE, EVEN IF ADVISED OF THE POSSIBILITY OF SUCH DAMAGE.
    82                           ; 
    83                           ; 
    84                           ; Code-generator required, PIC16F887 Definitions
    85                           ; 
    86                           ; SFR Addresses
    87  0000                     
    88                           	psect	idataBANK0
    89  0000                     __pidataBANK0:	
    90                           
    91                           	psect	strings
    92  0015                     __pstrings:	
    93  0015                     stringtab:	
    94  0015                     __stringtab:	
    95  0015                     stringcode:	
    96                           ;	String table - string pointers are 1 byte each
    97                           
    98  0015                     stringdir:	
    99  0015  3000               	movlw	high stringdir
   100  0016  008A               	movwf	10
   101  0017  0804               	movf	4,w
   102  0018  0A84               	incf	4,f
   103  0019  0782               	addwf	2,f
   104  001A                     __stringbase:	
   105  001A  3400               	retlw	0
   106  001B                     __end_of__stringtab:	
   107  001B                     _effects:	
   108  001B  3402               	retlw	low (fp__breath_init-fpbase)
   109  001C  3409               	retlw	low (fp__breath_update-fpbase)
   110  001D  3401               	retlw	low (fp__twinkle_init-fpbase)
   111  001E  3408               	retlw	low (fp__twinkle_update-fpbase)
   112  001F  3403               	retlw	low (fp__chase_init-fpbase)
   113  0020  340A               	retlw	low (fp__chase_update-fpbase)
   114  0021  3404               	retlw	low (fp__expand_init-fpbase)
   115  0022  340B               	retlw	low (fp__expand_update-fpbase)
   116  0023  3405               	retlw	low (fp__marquee_init-fpbase)
   117  0024  340C               	retlw	low (fp__marquee_update-fpbase)
   118  0025  3406               	retlw	low (fp__stack_init-fpbase)
   119  0026  340D               	retlw	low (fp__stack_update-fpbase)
   120  0027  3407               	retlw	low (fp__police_init-fpbase)
   121  0028  340E               	retlw	low (fp__police_update-fpbase)
   122  0029                     __end_of_effects:	
   123  0014                     _OSCCON	set	20
   124  0005                     _TRISB	set	5
   125  005F                     _GIE	set	95
   126  0031                     _RB1	set	49
   127  0094                     _ANSEL1	set	148
   128  0093                     _ANSEL0	set	147
   129  0088                     _WPUA	set	136
   130  0085                     _TRISA	set	133
   131  0430                     _RA0	set	1072
   132                           
   133                           	psect	cinit
   134  07E3                     start_initialization:	
   135                           ; #config settings
   136                           
   137  07E3                     __initialization:	
   138                           
   139                           ;initializer for random_value@rand_state
   140  07E3  3039               	movlw	57
   141  07E4  00DB               	movwf	__pdataBANK0& (0+127)
   142  07E5  3030               	movlw	48
   143  07E6  00DC               	movwf	(__pdataBANK0+1)& (0+127)
   144                           
   145                           ;initializer for _power_state
   146  07E7  3001               	movlw	1
   147  07E8  00DD               	movwf	(__pdataBANK0+2)& (0+127)
   148                           
   149                           ;initializer for _stack_target
   150  07E9  3017               	movlw	23
   151  07EA  00DE               	movwf	(__pdataBANK0+3)& (0+127)
   152                           
   153                           ;initializer for _expand_seed
   154  07EB  3001               	movlw	1
   155  07EC  00DF               	movwf	(__pdataBANK0+4)& (0+127)
   156                           
   157                           ;initializer for _expand_r
   158  07ED  30FF               	movlw	255
   159  07EE  00E0               	movwf	(__pdataBANK0+5)& (0+127)
   160                           
   161                           ;initializer for _expand_dir
   162  07EF  3001               	movlw	1
   163  07F0  00E1               	movwf	(__pdataBANK0+6)& (0+127)
   164                           
   165                           ;initializer for _breath_val
   166  07F1  3019               	movlw	25
   167  07F2  00E2               	movwf	(__pdataBANK0+7)& (0+127)
   168                           
   169                           ;initializer for _breath_dir
   170  07F3  3001               	movlw	1
   171  07F4  00E3               	movwf	(__pdataBANK0+8)& (0+127)
   172  07F5  30A0               	movlw	low __pbssBANK1
   173                           
   174                           ; Clear objects allocated to BANK1
   175  07F6  1383               	bcf	3,7	;select IRP bank0
   176  07F7  0084               	movwf	4
   177  07F8  30E8               	movlw	low (__pbssBANK1+72)
   178  07F9  209A               	fcall	clear_ram0
   179                           
   180                           ; Clear objects allocated to BANK0
   181  07FA  3020               	movlw	low __pbssBANK0
   182  07FB  0084               	movwf	4
   183  07FC  3051               	movlw	low (__pbssBANK0+49)
   184  07FD  209A               	fcall	clear_ram0
   185  07FE                     end_of_initialization:	
   186                           ;End of C runtime variable initialization code
   187                           
   188  07FE                     __end_of__initialization:	
   189  07FE  0183               	clrf	3
   190  07FF  2981               	ljmp	_main	;jump to C main() function
   191                           
   192                           	psect	bssBANK0
   193  0020                     __pbssBANK0:	
   194  0020                     _stars:	
   195  0020                     	ds	24
   196  0038                     _system_tick_ms:	
   197  0038                     	ds	2
   198  003A                     _key_pressed:	
   199  003A                     	ds	1
   200  003B                     _key_press_counter:	
   201  003B                     	ds	1
   202  003C                     _police_counter:	
   203  003C                     	ds	1
   204  003D                     _police_state:	
   205  003D                     	ds	1
   206  003E                     stack_update@counter:	
   207  003E                     	ds	1
   208  003F                     _stack_delay:	
   209  003F                     	ds	1
   210  0040                     _stack_lit_count:	
   211  0040                     	ds	1
   212  0041                     _stack_runner:	
   213  0041                     	ds	1
   214  0042                     marquee_update@color_index:	
   215  0042                     	ds	1
   216  0043                     marquee_update@counter:	
   217  0043                     	ds	1
   218  0044                     _marquee_pos:	
   219  0044                     	ds	1
   220  0045                     expand_update@counter:	
   221  0045                     	ds	1
   222  0046                     _expand_b:	
   223  0046                     	ds	1
   224  0047                     _expand_g:	
   225  0047                     	ds	1
   226  0048                     _expand_size:	
   227  0048                     	ds	1
   228  0049                     chase_update@counter:	
   229  0049                     	ds	1
   230  004A                     _chase_color_idx:	
   231  004A                     	ds	1
   232  004B                     _chase_pos:	
   233  004B                     	ds	1
   234  004C                     _twinkle_counter:	
   235  004C                     	ds	1
   236  004D                     breath_update@counter:	
   237  004D                     	ds	1
   238  004E                     _breath_transition:	
   239  004E                     	ds	1
   240  004F                     _breath_color:	
   241  004F                     	ds	1
   242  0050                     _current_effect:	
   243  0050                     	ds	1
   244                           
   245                           	psect	dataBANK0
   246  005B                     __pdataBANK0:	
   247  005B                     random_value@rand_state:	
   248  005B                     	ds	2
   249  005D                     _power_state:	
   250  005D                     	ds	1
   251  005E                     _stack_target:	
   252  005E                     	ds	1
   253  005F                     _expand_seed:	
   254  005F                     	ds	1
   255  0060                     _expand_r:	
   256  0060                     	ds	1
   257  0061                     _expand_dir:	
   258  0061                     	ds	1
   259  0062                     _breath_val:	
   260  0062                     	ds	1
   261  0063                     _breath_dir:	
   262  0063                     	ds	1
   263                           
   264                           	psect	bssBANK1
   265  00A0                     __pbssBANK1:	
   266  00A0                     _leds:	
   267  00A0                     	ds	72
   268                           
   269                           	psect	clrtext
   270  009A                     clear_ram0:	
   271                           ;	Called with FSR containing the base address, and
   272                           ;	W with the last address+1
   273                           
   274  009A  0064               	clrwdt	;clear the watchdog before getting into this loop
   275  009B                     clrloop0:	
   276  009B  0180               	clrf	0	;clear RAM location pointed to by FSR
   277  009C  0A84               	incf	4,f	;increment pointer
   278  009D  0604               	xorwf	4,w	;XOR with final address
   279  009E  1903               	btfsc	3,2	;have we reached the end yet?
   280  009F  3400               	retlw	0	;all done for this memory range, return
   281  00A0  0604               	xorwf	4,w	;XOR again to restore value
   282  00A1  289B               	goto	clrloop0	;do the next byte
   283                           
   284                           	psect	cstackCOMMON
   285  0070                     __pcstackCOMMON:	
   286  0070                     ?_breath_init:	
   287  0070                     ??_breath_init:	
   288                           ; 1 bytes @ 0x0
   289                           
   290  0070                     ?_breath_update:	
   291                           ; 1 bytes @ 0x0
   292                           
   293  0070                     ?_twinkle_init:	
   294                           ; 1 bytes @ 0x0
   295                           
   296  0070                     ?_twinkle_update:	
   297                           ; 1 bytes @ 0x0
   298                           
   299  0070                     ?_chase_init:	
   300                           ; 1 bytes @ 0x0
   301                           
   302  0070                     ??_chase_init:	
   303                           ; 1 bytes @ 0x0
   304                           
   305  0070                     ?_chase_update:	
   306                           ; 1 bytes @ 0x0
   307                           
   308  0070                     ?_random_value:	
   309                           ; 1 bytes @ 0x0
   310                           
   311  0070                     ?_expand_init:	
   312                           ; 1 bytes @ 0x0
   313                           
   314  0070                     ??_expand_init:	
   315                           ; 1 bytes @ 0x0
   316                           
   317  0070                     ?_expand_update:	
   318                           ; 1 bytes @ 0x0
   319                           
   320  0070                     ?_marquee_init:	
   321                           ; 1 bytes @ 0x0
   322                           
   323  0070                     ??_marquee_init:	
   324                           ; 1 bytes @ 0x0
   325                           
   326  0070                     ?_marquee_update:	
   327                           ; 1 bytes @ 0x0
   328                           
   329  0070                     ?_stack_init:	
   330                           ; 1 bytes @ 0x0
   331                           
   332  0070                     ??_stack_init:	
   333                           ; 1 bytes @ 0x0
   334                           
   335  0070                     ?_stack_update:	
   336                           ; 1 bytes @ 0x0
   337                           
   338  0070                     ?_police_init:	
   339                           ; 1 bytes @ 0x0
   340                           
   341  0070                     ??_police_init:	
   342                           ; 1 bytes @ 0x0
   343                           
   344  0070                     ?_police_update:	
   345                           ; 1 bytes @ 0x0
   346                           
   347  0070                     ??_police_update:	
   348                           ; 1 bytes @ 0x0
   349                           
   350  0070                     ?_effect_init:	
   351                           ; 1 bytes @ 0x0
   352                           
   353  0070                     ?_effect_execute:	
   354                           ; 1 bytes @ 0x0
   355                           
   356  0070                     ?_effects_update:	
   357                           ; 1 bytes @ 0x0
   358                           
   359  0070                     ?_system_clock_init:	
   360                           ; 1 bytes @ 0x0
   361                           
   362  0070                     ??_system_clock_init:	
   363                           ; 1 bytes @ 0x0
   364                           
   365  0070                     ?_delay_ms:	
   366                           ; 1 bytes @ 0x0
   367                           
   368  0070                     ?_ws2812_send_byte:	
   369                           ; 1 bytes @ 0x0
   370                           
   371  0070                     ??_ws2812_send_byte:	
   372                           ; 1 bytes @ 0x0
   373                           
   374  0070                     ?_ws2812_reset:	
   375                           ; 1 bytes @ 0x0
   376                           
   377  0070                     ?_ws2812_gpio_init:	
   378                           ; 1 bytes @ 0x0
   379                           
   380  0070                     ??_ws2812_gpio_init:	
   381                           ; 1 bytes @ 0x0
   382                           
   383  0070                     ?_key_scan:	
   384                           ; 1 bytes @ 0x0
   385                           
   386  0070                     ?_main:	
   387                           ; 1 bytes @ 0x0
   388                           
   389  0070                     ?___bmul:	
   390                           ; 1 bytes @ 0x0
   391                           
   392  0070                     ?___wmul:	
   393                           ; 1 bytes @ 0x0
   394                           
   395  0070                     ?___awmod:	
   396                           ; 2 bytes @ 0x0
   397                           
   398  0070                     chase_init@i:	
   399                           ; 2 bytes @ 0x0
   400                           
   401  0070                     expand_init@i:	
   402                           ; 1 bytes @ 0x0
   403                           
   404  0070                     marquee_init@i:	
   405                           ; 1 bytes @ 0x0
   406                           
   407  0070                     stack_init@i:	
   408                           ; 1 bytes @ 0x0
   409                           
   410  0070                     police_init@i:	
   411                           ; 1 bytes @ 0x0
   412                           
   413  0070                     police_update@g:	
   414                           ; 1 bytes @ 0x0
   415                           
   416  0070                     system_clock_init@i:	
   417                           ; 1 bytes @ 0x0
   418                           
   419  0070                     ws2812_send_byte@byte:	
   420                           ; 1 bytes @ 0x0
   421                           
   422  0070                     ___bmul@multiplicand:	
   423                           ; 1 bytes @ 0x0
   424                           
   425  0070                     delay_ms@ms:	
   426                           ; 1 bytes @ 0x0
   427                           
   428  0070                     ___wmul@multiplier:	
   429                           ; 2 bytes @ 0x0
   430                           
   431  0070                     ___awmod@divisor:	
   432                           ; 2 bytes @ 0x0
   433                           
   434                           
   435                           ; 2 bytes @ 0x0
   436  0070                     	ds	1
   437  0071                     ??_stack_update:	
   438  0071                     ?_ws2812_send_color:	
   439                           ; 1 bytes @ 0x1
   440                           
   441  0071                     ??___bmul:	
   442                           ; 1 bytes @ 0x1
   443                           
   444  0071                     marquee_init@i_407:	
   445                           ; 1 bytes @ 0x1
   446                           
   447  0071                     stack_update@i:	
   448                           ; 1 bytes @ 0x1
   449                           
   450  0071                     police_update@r:	
   451                           ; 1 bytes @ 0x1
   452                           
   453  0071                     ___bmul@product:	
   454                           ; 1 bytes @ 0x1
   455                           
   456  0071                     ws2812_send_color@color:	
   457                           ; 1 bytes @ 0x1
   458                           
   459                           
   460                           ; 3 bytes @ 0x1
   461  0071                     	ds	1
   462  0072                     ??_delay_ms:	
   463  0072                     stack_update@i_428:	
   464                           ; 1 bytes @ 0x2
   465                           
   466  0072                     police_update@b:	
   467                           ; 1 bytes @ 0x2
   468                           
   469  0072                     ___bmul@multiplier:	
   470                           ; 1 bytes @ 0x2
   471                           
   472  0072                     delay_ms@i:	
   473                           ; 1 bytes @ 0x2
   474                           
   475  0072                     ___wmul@multiplicand:	
   476                           ; 2 bytes @ 0x2
   477                           
   478  0072                     ___awmod@dividend:	
   479                           ; 2 bytes @ 0x2
   480                           
   481                           
   482                           ; 2 bytes @ 0x2
   483  0072                     	ds	1
   484  0073                     police_update@i:	
   485                           
   486                           ; 1 bytes @ 0x3
   487  0073                     	ds	1
   488  0074                     ??_ws2812_send_color:	
   489  0074                     ??___wmul:	
   490                           ; 1 bytes @ 0x4
   491                           
   492  0074                     ??___awmod:	
   493                           ; 1 bytes @ 0x4
   494                           
   495  0074                     ___awmod@counter:	
   496                           ; 1 bytes @ 0x4
   497                           
   498  0074                     delay_ms@j:	
   499                           ; 1 bytes @ 0x4
   500                           
   501  0074                     ___wmul@product:	
   502                           ; 2 bytes @ 0x4
   503                           
   504                           
   505                           ; 2 bytes @ 0x4
   506  0074                     	ds	1
   507  0075                     ___awmod@sign:	
   508                           
   509                           ; 1 bytes @ 0x5
   510  0075                     	ds	1
   511  0076                     ??_breath_update:	
   512  0076                     ??_chase_update:	
   513                           ; 1 bytes @ 0x6
   514                           
   515  0076                     ??_random_value:	
   516                           ; 1 bytes @ 0x6
   517                           
   518  0076                     ??_marquee_update:	
   519                           ; 1 bytes @ 0x6
   520                           
   521  0076                     ??_ws2812_reset:	
   522                           ; 1 bytes @ 0x6
   523                           
   524  0076                     ?___awdiv:	
   525                           ; 1 bytes @ 0x6
   526                           
   527  0076                     ?___lwmod:	
   528                           ; 2 bytes @ 0x6
   529                           
   530  0076                     breath_update@r:	
   531                           ; 2 bytes @ 0x6
   532                           
   533  0076                     chase_update@old_pos:	
   534                           ; 1 bytes @ 0x6
   535                           
   536  0076                     marquee_update@old_pos:	
   537                           ; 1 bytes @ 0x6
   538                           
   539  0076                     ___awdiv@divisor:	
   540                           ; 1 bytes @ 0x6
   541                           
   542  0076                     ___lwmod@divisor:	
   543                           ; 2 bytes @ 0x6
   544                           
   545                           
   546                           ; 2 bytes @ 0x6
   547  0076                     	ds	1
   548  0077                     breath_update@g:	
   549  0077                     chase_update@r:	
   550                           ; 1 bytes @ 0x7
   551                           
   552  0077                     marquee_update@r:	
   553                           ; 1 bytes @ 0x7
   554                           
   555                           
   556                           ; 1 bytes @ 0x7
   557  0077                     	ds	1
   558  0078                     breath_update@b:	
   559  0078                     chase_update@g:	
   560                           ; 1 bytes @ 0x8
   561                           
   562  0078                     random_value@seed:	
   563                           ; 1 bytes @ 0x8
   564                           
   565  0078                     marquee_update@g:	
   566                           ; 1 bytes @ 0x8
   567                           
   568  0078                     ___awdiv@dividend:	
   569                           ; 1 bytes @ 0x8
   570                           
   571  0078                     ___lwmod@dividend:	
   572                           ; 2 bytes @ 0x8
   573                           
   574                           
   575                           ; 2 bytes @ 0x8
   576  0078                     	ds	1
   577  0079                     ??_expand_update:	
   578  0079                     breath_update@old_val:	
   579                           ; 1 bytes @ 0x9
   580                           
   581  0079                     chase_update@b:	
   582                           ; 1 bytes @ 0x9
   583                           
   584  0079                     expand_update@left:	
   585                           ; 1 bytes @ 0x9
   586                           
   587  0079                     marquee_update@b:	
   588                           ; 1 bytes @ 0x9
   589                           
   590                           
   591                           ; 1 bytes @ 0x9
   592  0079                     	ds	1
   593  007A                     ??___awdiv:	
   594  007A                     ??___lwmod:	
   595                           ; 1 bytes @ 0xA
   596                           
   597  007A                     breath_update@new_val:	
   598                           ; 1 bytes @ 0xA
   599                           
   600  007A                     chase_update@pos:	
   601                           ; 1 bytes @ 0xA
   602                           
   603  007A                     expand_update@right:	
   604                           ; 1 bytes @ 0xA
   605                           
   606  007A                     marquee_update@pos:	
   607                           ; 1 bytes @ 0xA
   608                           
   609  007A                     ___awdiv@counter:	
   610                           ; 1 bytes @ 0xA
   611                           
   612  007A                     ___lwmod@counter:	
   613                           ; 1 bytes @ 0xA
   614                           
   615                           
   616                           ; 1 bytes @ 0xA
   617  007A                     	ds	1
   618  007B                     ??_twinkle_init:	
   619  007B                     breath_update@i:	
   620                           ; 1 bytes @ 0xB
   621                           
   622  007B                     twinkle_init@i:	
   623                           ; 1 bytes @ 0xB
   624                           
   625  007B                     chase_update@i_382:	
   626                           ; 1 bytes @ 0xB
   627                           
   628  007B                     expand_update@left_402:	
   629                           ; 1 bytes @ 0xB
   630                           
   631  007B                     marquee_update@i_415:	
   632                           ; 1 bytes @ 0xB
   633                           
   634  007B                     ___awdiv@sign:	
   635                           ; 1 bytes @ 0xB
   636                           
   637                           
   638                           ; 1 bytes @ 0xB
   639  007B                     	ds	1
   640  007C                     twinkle_init@i_363:	
   641  007C                     chase_update@i:	
   642                           ; 1 bytes @ 0xC
   643                           
   644  007C                     expand_update@right_403:	
   645                           ; 1 bytes @ 0xC
   646                           
   647  007C                     marquee_update@i:	
   648                           ; 1 bytes @ 0xC
   649                           
   650  007C                     ___awdiv@quotient:	
   651                           ; 1 bytes @ 0xC
   652                           
   653                           
   654                           ; 2 bytes @ 0xC
   655  007C                     	ds	1
   656  007D                     ??_effect_init:	
   657  007D                     ??_effect_execute:	
   658                           ; 1 bytes @ 0xD
   659                           
   660  007D                     expand_update@i:	
   661                           ; 1 bytes @ 0xD
   662                           
   663  007D                     effect_execute@mode:	
   664                           ; 1 bytes @ 0xD
   665                           
   666                           
   667                           ; 1 bytes @ 0xD
   668  007D                     	ds	1
   669  007E                     ??_effects_update:	
   670  007E                     ??_key_scan:	
   671                           ; 1 bytes @ 0xE
   672                           
   673  007E                     ??_main:	
   674                           ; 1 bytes @ 0xE
   675                           
   676                           
   677                           	psect	cstackBANK0
   678  0051                     __pcstackBANK0:	
   679                           ; 1 bytes @ 0xE
   680                           
   681  0051                     ??_twinkle_update:	
   682  0051                     ?_ws2812_update_RGB:	
   683                           ; 1 bytes @ 0x0
   684                           
   685  0051                     ws2812_update_RGB@num:	
   686                           ; 1 bytes @ 0x0
   687                           
   688                           
   689                           ; 1 bytes @ 0x0
   690  0051                     	ds	1
   691  0052                     ??_ws2812_update_RGB:	
   692                           
   693                           ; 1 bytes @ 0x1
   694  0052                     	ds	1
   695  0053                     twinkle_update@color:	
   696  0053                     ws2812_update_RGB@next_mode:	
   697                           ; 1 bytes @ 0x2
   698                           
   699                           
   700                           ; 1 bytes @ 0x2
   701  0053                     	ds	1
   702  0054                     twinkle_update@brightness:	
   703  0054                     ws2812_update_RGB@key_was_pressed:	
   704                           ; 1 bytes @ 0x3
   705                           
   706                           
   707                           ; 1 bytes @ 0x3
   708  0054                     	ds	1
   709  0055                     twinkle_update@i:	
   710  0055                     ws2812_update_RGB@leds:	
   711                           ; 1 bytes @ 0x4
   712                           
   713                           
   714                           ; 1 bytes @ 0x4
   715  0055                     	ds	1
   716  0056                     twinkle_update@i_369:	
   717  0056                     ws2812_update_RGB@i:	
   718                           ; 1 bytes @ 0x5
   719                           
   720                           
   721                           ; 1 bytes @ 0x5
   722  0056                     	ds	1
   723  0057                     key_scan@next_mode:	
   724                           
   725                           ; 1 bytes @ 0x6
   726  0057                     	ds	1
   727  0058                     key_scan@i:	
   728                           
   729                           ; 1 bytes @ 0x7
   730  0058                     	ds	1
   731  0059                     main@update_counter:	
   732                           
   733                           ; 2 bytes @ 0x8
   734  0059                     	ds	2
   735                           
   736                           	psect	maintext
   737  0181                     __pmaintext:	
   738 ;;
   739 ;;Main: autosize = 0, tempsize = 0, incstack = 0, save=0
   740 ;;
   741 ;; *************** function _main *****************
   742 ;; Defined at:
   743 ;;		line 217 in file "H:\8bit-RGB\main.c"
   744 ;; Parameters:    Size  Location     Type
   745 ;;		None
   746 ;; Auto vars:     Size  Location     Type
   747 ;;  update_count    2    8[BANK0 ] unsigned int 
   748 ;; Return value:  Size  Location     Type
   749 ;;                  1    wreg      void 
   750 ;; Registers used:
   751 ;;		wreg, fsr0l, fsr0h, status,2, status,0, pclath, cstack
   752 ;; Tracked objects:
   753 ;;		On entry : B00/0
   754 ;;		On exit  : 0/0
   755 ;;		Unchanged: 0/0
   756 ;; Data sizes:     COMMON   BANK0   BANK1
   757 ;;      Params:         0       0       0
   758 ;;      Locals:         0       2       0
   759 ;;      Temps:          0       0       0
   760 ;;      Totals:         0       2       0
   761 ;;Total ram usage:        2 bytes
   762 ;; Hardware stack levels required when called:    5
   763 ;; This function calls:
   764 ;;		_delay_ms
   765 ;;		_effect_init
   766 ;;		_effects_update
   767 ;;		_key_scan
   768 ;;		_system_clock_init
   769 ;;		_ws2812_gpio_init
   770 ;;		_ws2812_update_RGB
   771 ;; This function is called by:
   772 ;;		Startup code after reset
   773 ;; This function uses a non-reentrant model
   774 ;;
   775                           
   776                           
   777                           ;psect for function _main
   778  0181                     _main:	
   779                           
   780                           ;main.c: 219: system_clock_init();
   781                           
   782                           ;incstack = 0
   783                           ; Regs used in _main: [wreg-fsr0h+status,2+status,0+pclath+cstack]
   784  0181  20AB               	fcall	_system_clock_init
   785                           
   786                           ;main.c: 222: WPUA |= (1 << 0);
   787  0182  1683               	bsf	3,5	;RP0=1, select bank1
   788  0183  1408               	bsf	8,0	;volatile
   789                           
   790                           ;main.c: 225: ws2812_gpio_init();
   791  0184  2093               	fcall	_ws2812_gpio_init
   792                           
   793                           ;main.c: 228: effect_init();
   794  0185  20B5               	fcall	_effect_init
   795                           
   796                           ;main.c: 231: unsigned int update_counter = 0;
   797  0186  01D9               	clrf	main@update_counter
   798  0187  01DA               	clrf	main@update_counter+1
   799  0188                     l3807:	
   800                           
   801                           ;main.c: 234: key_scan();
   802  0188  230F               	fcall	_key_scan
   803                           
   804                           ;main.c: 237: update_counter++;
   805  0189  1283               	bcf	3,5	;RP0=0, select bank0
   806  018A  0AD9               	incf	main@update_counter,f
   807  018B  1903               	skipnz
   808  018C  0ADA               	incf	main@update_counter+1,f
   809                           
   810                           ;main.c: 238: if (update_counter >= 10) {
   811  018D  3000               	movlw	0
   812  018E  025A               	subwf	main@update_counter+1,w
   813  018F  300A               	movlw	10
   814  0190  1903               	skipnz
   815  0191  0259               	subwf	main@update_counter,w
   816  0192  1C03               	skipc
   817  0193  299E               	goto	l3819
   818                           
   819                           ;main.c: 239: update_counter = 0;
   820  0194  01D9               	clrf	main@update_counter
   821  0195  01DA               	clrf	main@update_counter+1
   822                           
   823                           ;main.c: 242: if (power_state) {
   824  0196  085D               	movf	_power_state,w
   825  0197  1903               	btfsc	3,2
   826  0198  299A               	goto	l1506
   827                           
   828                           ;main.c: 244: effects_update();
   829  0199  20C0               	fcall	_effects_update
   830  019A                     l1506:	
   831                           
   832                           ;main.c: 245: }
   833                           ;main.c: 248: ws2812_update_RGB(leds, 24);
   834  019A  3018               	movlw	24
   835  019B  00D1               	movwf	ws2812_update_RGB@num
   836  019C  30A0               	movlw	(low (_leds| 0))& (0+255)
   837  019D  2252               	fcall	_ws2812_update_RGB
   838  019E                     l3819:	
   839                           
   840                           ;main.c: 249: }
   841                           ;main.c: 252: delay_ms(1);
   842  019E  01F0               	clrf	delay_ms@ms
   843  019F  0AF0               	incf	delay_ms@ms,f
   844  01A0  01F1               	clrf	delay_ms@ms+1
   845  01A1  20F2               	fcall	_delay_ms
   846  01A2  2988               	goto	l3807
   847  01A3                     __end_of_main:	
   848                           
   849                           	psect	text1
   850  0093                     __ptext1:	
   851 ;; *************** function _ws2812_gpio_init *****************
   852 ;; Defined at:
   853 ;;		line 139 in file "H:\8bit-RGB\main.c"
   854 ;; Parameters:    Size  Location     Type
   855 ;;		None
   856 ;; Auto vars:     Size  Location     Type
   857 ;;		None
   858 ;; Return value:  Size  Location     Type
   859 ;;                  1    wreg      void 
   860 ;; Registers used:
   861 ;;		None
   862 ;; Tracked objects:
   863 ;;		On entry : 100/100
   864 ;;		On exit  : 100/0
   865 ;;		Unchanged: 0/0
   866 ;; Data sizes:     COMMON   BANK0   BANK1
   867 ;;      Params:         0       0       0
   868 ;;      Locals:         0       0       0
   869 ;;      Temps:          0       0       0
   870 ;;      Totals:         0       0       0
   871 ;;Total ram usage:        0 bytes
   872 ;; Hardware stack levels used:    1
   873 ;; This function calls:
   874 ;;		Nothing
   875 ;; This function is called by:
   876 ;;		_main
   877 ;; This function uses a non-reentrant model
   878 ;;
   879                           
   880                           
   881                           ;psect for function _ws2812_gpio_init
   882  0093                     _ws2812_gpio_init:	
   883                           
   884                           ;main.c: 141: TRISA |= (1 << 0);
   885                           
   886                           ;incstack = 0
   887                           ; Regs used in _ws2812_gpio_init: []
   888  0093  1405               	bsf	5,0	;volatile
   889                           
   890                           ;main.c: 144: ANSEL0 &= ~(1 << 0);
   891  0094  1013               	bcf	19,0	;volatile
   892                           
   893                           ;main.c: 147: ANSEL1 &= ~(1 << 1);
   894  0095  1094               	bcf	20,1	;volatile
   895                           
   896                           ;main.c: 150: TRISB &= ~(1 << 1);
   897  0096  1283               	bcf	3,5	;RP0=0, select bank0
   898  0097  1085               	bcf	5,1	;volatile
   899                           
   900                           ;main.c: 153: RB1 = 0;
   901  0098  1086               	bcf	6,1	;volatile
   902  0099  0008               	return
   903  009A                     __end_of_ws2812_gpio_init:	
   904                           
   905                           	psect	text2
   906  00AB                     __ptext2:	
   907 ;; *************** function _system_clock_init *****************
   908 ;; Defined at:
   909 ;;		line 9 in file "H:\8bit-RGB\main.c"
   910 ;; Parameters:    Size  Location     Type
   911 ;;		None
   912 ;; Auto vars:     Size  Location     Type
   913 ;;  i               1    0[COMMON] unsigned char 
   914 ;; Return value:  Size  Location     Type
   915 ;;                  1    wreg      void 
   916 ;; Registers used:
   917 ;;		wreg, status,2, status,0
   918 ;; Tracked objects:
   919 ;;		On entry : B00/0
   920 ;;		On exit  : 0/0
   921 ;;		Unchanged: 0/0
   922 ;; Data sizes:     COMMON   BANK0   BANK1
   923 ;;      Params:         0       0       0
   924 ;;      Locals:         1       0       0
   925 ;;      Temps:          0       0       0
   926 ;;      Totals:         1       0       0
   927 ;;Total ram usage:        1 bytes
   928 ;; Hardware stack levels used:    1
   929 ;; This function calls:
   930 ;;		Nothing
   931 ;; This function is called by:
   932 ;;		_main
   933 ;; This function uses a non-reentrant model
   934 ;;
   935                           
   936                           
   937                           ;psect for function _system_clock_init
   938  00AB                     _system_clock_init:	
   939                           
   940                           ;main.c: 12: OSCCON = 0x70;
   941                           
   942                           ;incstack = 0
   943                           ; Regs used in _system_clock_init: [wreg+status,2+status,0]
   944  00AB  3070               	movlw	112
   945  00AC  0094               	movwf	20	;volatile
   946                           
   947                           ;main.c: 15: unsigned char i;
   948                           ;main.c: 16: for (i = 0; i < 20; i++) {
   949  00AD  01F0               	clrf	system_clock_init@i
   950  00AE                     l1428:	
   951  00AE  0000               	nop	;# 
   952  00AF  3014               	movlw	20
   953  00B0  0AF0               	incf	system_clock_init@i,f
   954  00B1  0270               	subwf	system_clock_init@i,w
   955  00B2  1803               	btfsc	3,0
   956  00B3  0008               	return
   957  00B4  28AE               	goto	l1428
   958  00B5                     __end_of_system_clock_init:	
   959                           
   960                           	psect	text3
   961  030F                     __ptext3:	
   962 ;; *************** function _key_scan *****************
   963 ;; Defined at:
   964 ;;		line 161 in file "H:\8bit-RGB\main.c"
   965 ;; Parameters:    Size  Location     Type
   966 ;;		None
   967 ;; Auto vars:     Size  Location     Type
   968 ;;  next_mode       1    6[BANK0 ] enum E587
   969 ;;  i               1    7[BANK0 ] unsigned char 
   970 ;; Return value:  Size  Location     Type
   971 ;;                  1    wreg      void 
   972 ;; Registers used:
   973 ;;		wreg, fsr0l, fsr0h, status,2, status,0, pclath, cstack
   974 ;; Tracked objects:
   975 ;;		On entry : 0/0
   976 ;;		On exit  : 0/0
   977 ;;		Unchanged: 0/0
   978 ;; Data sizes:     COMMON   BANK0   BANK1
   979 ;;      Params:         0       0       0
   980 ;;      Locals:         0       2       0
   981 ;;      Temps:          0       0       0
   982 ;;      Totals:         0       2       0
   983 ;;Total ram usage:        2 bytes
   984 ;; Hardware stack levels used:    1
   985 ;; Hardware stack levels required when called:    4
   986 ;; This function calls:
   987 ;;		___awmod
   988 ;;		_delay_ms
   989 ;;		_effect_execute
   990 ;;		_ws2812_update_RGB
   991 ;; This function is called by:
   992 ;;		_main
   993 ;; This function uses a non-reentrant model
   994 ;;
   995                           
   996                           
   997                           ;psect for function _key_scan
   998  030F                     _key_scan:	
   999                           
  1000                           ;main.c: 162: if (RA0 == 0) {
  1001                           
  1002                           ;incstack = 0
  1003                           ; Regs used in _key_scan: [wreg-fsr0h+status,2+status,0+pclath+cstack]
  1004  030F  1683               	bsf	3,5	;RP0=1, select bank1
  1005  0310  1806               	btfsc	6,0	;volatile
  1006  0311  2B56               	goto	l3783
  1007                           
  1008                           ;main.c: 164: if (!key_pressed) {
  1009  0312  1283               	bcf	3,5	;RP0=0, select bank0
  1010  0313  083A               	movf	_key_pressed,w
  1011  0314  1D03               	btfss	3,2
  1012  0315  2B22               	goto	l3759
  1013                           
  1014                           ;main.c: 165: delay_ms(20);
  1015  0316  3014               	movlw	20
  1016  0317  00F0               	movwf	delay_ms@ms
  1017  0318  01F1               	clrf	delay_ms@ms+1
  1018  0319  20F2               	fcall	_delay_ms
  1019                           
  1020                           ;main.c: 166: if (RA0 == 0) {
  1021  031A  1683               	bsf	3,5	;RP0=1, select bank1
  1022  031B  1806               	btfsc	6,0	;volatile
  1023  031C  0008               	return
  1024                           
  1025                           ;main.c: 167: key_pressed = 1;
  1026  031D  1283               	bcf	3,5	;RP0=0, select bank0
  1027  031E  01BA               	clrf	_key_pressed
  1028  031F  0ABA               	incf	_key_pressed,f
  1029  0320                     l3757:	
  1030                           
  1031                           ;main.c: 168: key_press_counter = 0;
  1032  0320  01BB               	clrf	_key_press_counter
  1033  0321  0008               	return
  1034  0322                     l3759:	
  1035                           
  1036                           ;main.c: 172: if (key_press_counter < 255) {
  1037  0322  0F3B               	incfsz	_key_press_counter,w
  1038                           
  1039                           ;main.c: 173: key_press_counter++;
  1040  0323  0ABB               	incf	_key_press_counter,f
  1041                           
  1042                           ;main.c: 174: }
  1043                           ;main.c: 176: if (key_press_counter == 150) {
  1044  0324  3096               	movlw	150
  1045  0325  063B               	xorwf	_key_press_counter,w
  1046  0326  1D03               	btfss	3,2
  1047  0327  0008               	return
  1048                           
  1049                           ;main.c: 178: power_state = !power_state;
  1050  0328  085D               	movf	_power_state,w
  1051  0329  1D03               	btfss	3,2
  1052  032A  2B2D               	goto	u2030
  1053  032B  3001               	movlw	1
  1054  032C  2B2E               	goto	u2040
  1055  032D                     u2030:	
  1056  032D  3000               	movlw	0
  1057  032E                     u2040:	
  1058  032E  00DD               	movwf	_power_state
  1059                           
  1060                           ;main.c: 179: if (!power_state) {
  1061  032F  085D               	movf	_power_state,w
  1062  0330  1D03               	btfss	3,2
  1063  0331  2B4F               	goto	l1492
  1064                           
  1065                           ;main.c: 181: unsigned char i;
  1066                           ;main.c: 182: for (i = 0; i < 24; i++) {
  1067  0332  01D8               	clrf	key_scan@i
  1068  0333                     l3773:	
  1069                           
  1070                           ;main.c: 183: leds[i].r = 0;
  1071  0333  0858               	movf	key_scan@i,w
  1072  0334  0758               	addwf	key_scan@i,w
  1073  0335  0758               	addwf	key_scan@i,w
  1074  0336  3EA0               	addlw	(low (_leds| 0))& (0+255)
  1075  0337  0084               	movwf	4
  1076  0338  1383               	bcf	3,7	;select IRP bank1
  1077  0339  0180               	clrf	0
  1078                           
  1079                           ;main.c: 184: leds[i].g = 0;
  1080  033A  0858               	movf	key_scan@i,w
  1081  033B  0758               	addwf	key_scan@i,w
  1082  033C  0758               	addwf	key_scan@i,w
  1083  033D  3EA1               	addlw	(low ((_leds| 0+1)))& (0+255)
  1084  033E  0084               	movwf	4
  1085  033F  0180               	clrf	0
  1086                           
  1087                           ;main.c: 185: leds[i].b = 0;
  1088  0340  0858               	movf	key_scan@i,w
  1089  0341  0758               	addwf	key_scan@i,w
  1090  0342  0758               	addwf	key_scan@i,w
  1091  0343  3EA2               	addlw	(low ((_leds| 0+2)))& (0+255)
  1092  0344  0084               	movwf	4
  1093  0345  3018               	movlw	24
  1094  0346  0180               	clrf	0
  1095  0347  0AD8               	incf	key_scan@i,f
  1096  0348  0258               	subwf	key_scan@i,w
  1097  0349  1C03               	skipc
  1098  034A  2B33               	goto	l3773
  1099                           
  1100                           ;main.c: 186: }
  1101                           ;main.c: 187: ws2812_update_RGB(leds, 24);
  1102  034B  3018               	movlw	24
  1103  034C  00D1               	movwf	ws2812_update_RGB@num
  1104  034D  30A0               	movlw	(low (_leds| 0))& (0+255)
  1105  034E  2252               	fcall	_ws2812_update_RGB
  1106  034F                     l1492:	
  1107  034F  1683               	bsf	3,5	;RP0=1, select bank1
  1108  0350  1C06               	btfss	6,0	;volatile
  1109  0351  2B4F               	goto	l1492
  1110                           
  1111                           ;main.c: 191: key_pressed = 0;
  1112  0352  1283               	bcf	3,5	;RP0=0, select bank0
  1113  0353  01BA               	clrf	_key_pressed
  1114                           
  1115                           ;main.c: 192: key_press_counter = 0;
  1116  0354  01BB               	clrf	_key_press_counter
  1117  0355  0008               	return
  1118  0356                     l3783:	
  1119                           
  1120                           ;main.c: 197: if (key_pressed) {
  1121  0356  1283               	bcf	3,5	;RP0=0, select bank0
  1122  0357  083A               	movf	_key_pressed,w
  1123  0358  1903               	btfsc	3,2
  1124  0359  0008               	return
  1125                           
  1126                           ;main.c: 198: if (key_press_counter < 150) {
  1127  035A  3096               	movlw	150
  1128  035B  023B               	subwf	_key_press_counter,w
  1129  035C  1803               	skipnc
  1130  035D  2B66               	goto	l3793
  1131                           
  1132                           ;main.c: 200: if (power_state) {
  1133  035E  085D               	movf	_power_state,w
  1134  035F  1903               	btfsc	3,2
  1135  0360  2B66               	goto	l3793
  1136                           
  1137                           ;main.c: 201: EffectMode_t next_mode = (current_effect + 1) % EFFECT_COUNT;
  1138  0361  2283               	fcall	PL12	;call to abstracted procedure
  1139  0362  228D               	fcall	___awmod
  1140  0363  0870               	movf	?___awmod,w
  1141  0364  00D7               	movwf	key_scan@next_mode
  1142                           
  1143                           ;main.c: 202: effect_execute(next_mode);
  1144  0365  20A2               	fcall	_effect_execute
  1145  0366                     l3793:	
  1146                           
  1147                           ;main.c: 203: }
  1148                           ;main.c: 204: }
  1149                           ;main.c: 205: key_pressed = 0;
  1150  0366  01BA               	clrf	_key_pressed
  1151  0367  2B20               	goto	l3757
  1152  0368                     __end_of_key_scan:	
  1153                           
  1154                           	psect	text4
  1155  0252                     __ptext4:	
  1156 ;; *************** function _ws2812_update_RGB *****************
  1157 ;; Defined at:
  1158 ;;		line 115 in file "H:\8bit-RGB\main.c"
  1159 ;; Parameters:    Size  Location     Type
  1160 ;;  leds            1    wreg     PTR struct .
  1161 ;;		 -> leds(72), 
  1162 ;;  num             1    0[BANK0 ] unsigned char 
  1163 ;; Auto vars:     Size  Location     Type
  1164 ;;  leds            1    4[BANK0 ] PTR struct .
  1165 ;;		 -> leds(72), 
  1166 ;;  next_mode       1    2[BANK0 ] enum E587
  1167 ;;  i               1    5[BANK0 ] unsigned char 
  1168 ;;  key_was_pres    1    3[BANK0 ] unsigned char 
  1169 ;; Return value:  Size  Location     Type
  1170 ;;                  1    wreg      void 
  1171 ;; Registers used:
  1172 ;;		wreg, fsr0l, fsr0h, status,2, status,0, pclath, cstack
  1173 ;; Tracked objects:
  1174 ;;		On entry : 100/0
  1175 ;;		On exit  : 0/0
  1176 ;;		Unchanged: 0/0
  1177 ;; Data sizes:     COMMON   BANK0   BANK1
  1178 ;;      Params:         0       1       0
  1179 ;;      Locals:         0       4       0
  1180 ;;      Temps:          0       1       0
  1181 ;;      Totals:         0       6       0
  1182 ;;Total ram usage:        6 bytes
  1183 ;; Hardware stack levels used:    1
  1184 ;; Hardware stack levels required when called:    3
  1185 ;; This function calls:
  1186 ;;		___awmod
  1187 ;;		_effect_execute
  1188 ;;		_ws2812_reset
  1189 ;;		_ws2812_send_color
  1190 ;; This function is called by:
  1191 ;;		_key_scan
  1192 ;;		_main
  1193 ;; This function uses a non-reentrant model
  1194 ;;
  1195                           
  1196                           
  1197                           ;psect for function _ws2812_update_RGB
  1198  0252                     _ws2812_update_RGB:	
  1199                           
  1200                           ;incstack = 0
  1201                           ; Regs used in _ws2812_update_RGB: [wreg-fsr0h+status,2+status,0+pclath+cstack]
  1202                           ;ws2812_update_RGB@leds stored from wreg
  1203  0252  00D5               	movwf	ws2812_update_RGB@leds
  1204                           
  1205                           ;main.c: 116: unsigned char i;
  1206                           ;main.c: 117: unsigned char key_was_pressed = 0;
  1207  0253  01D4               	clrf	ws2812_update_RGB@key_was_pressed
  1208                           
  1209                           ;main.c: 120: if (RA0 == 0) {
  1210  0254  1683               	bsf	3,5	;RP0=1, select bank1
  1211  0255  1806               	btfsc	6,0	;volatile
  1212  0256  2A5A               	goto	l1466
  1213                           
  1214                           ;main.c: 121: key_was_pressed = 1;
  1215  0257  1283               	bcf	3,5	;RP0=0, select bank0
  1216  0258  01D4               	clrf	ws2812_update_RGB@key_was_pressed
  1217  0259  0AD4               	incf	ws2812_update_RGB@key_was_pressed,f
  1218  025A                     l1466:	
  1219                           
  1220                           ;main.c: 122: }
  1221                           ;main.c: 124: GIE = 0;
  1222  025A  138B               	bcf	11,7	;volatile
  1223                           
  1224                           ;main.c: 125: for (i = 0; i < num; i++) {
  1225  025B  1283               	bcf	3,5	;RP0=0, select bank0
  1226  025C  01D6               	clrf	ws2812_update_RGB@i
  1227  025D                     l3711:	
  1228  025D  0851               	movf	ws2812_update_RGB@num,w
  1229  025E  0256               	subwf	ws2812_update_RGB@i,w
  1230  025F  1803               	btfsc	3,0
  1231  0260  2A74               	goto	l3713
  1232                           
  1233                           ;main.c: 126: ws2812_send_color(leds[i]);
  1234  0261  0856               	movf	ws2812_update_RGB@i,w
  1235  0262  0756               	addwf	ws2812_update_RGB@i,w
  1236  0263  0756               	addwf	ws2812_update_RGB@i,w
  1237  0264  0755               	addwf	ws2812_update_RGB@leds,w
  1238  0265  00D2               	movwf	??_ws2812_update_RGB
  1239  0266  0084               	movwf	4
  1240  0267  1383               	bcf	3,7	;select IRP bank0
  1241  0268  0800               	movf	0,w
  1242  0269  00F1               	movwf	ws2812_send_color@color
  1243  026A  0A84               	incf	4,f
  1244  026B  0800               	movf	0,w
  1245  026C  00F2               	movwf	ws2812_send_color@color+1
  1246  026D  0A84               	incf	4,f
  1247  026E  0800               	movf	0,w
  1248  026F  00F3               	movwf	ws2812_send_color@color+2
  1249  0270  2086               	fcall	_ws2812_send_color
  1250  0271  1283               	bcf	3,5	;RP0=0, select bank0
  1251  0272  0AD6               	incf	ws2812_update_RGB@i,f
  1252  0273  2A5D               	goto	l3711
  1253  0274                     l3713:	
  1254                           
  1255                           ;main.c: 127: }
  1256                           ;main.c: 128: ws2812_reset();
  1257  0274  2081               	fcall	_ws2812_reset
  1258                           
  1259                           ;main.c: 129: GIE = 1;
  1260  0275  178B               	bsf	11,7	;volatile
  1261                           
  1262                           ;main.c: 132: if (key_was_pressed && RA0 == 1) {
  1263  0276  1283               	bcf	3,5	;RP0=0, select bank0
  1264  0277  0854               	movf	ws2812_update_RGB@key_was_pressed,w
  1265  0278  1903               	btfsc	3,2
  1266  0279  0008               	return
  1267  027A  1683               	bsf	3,5	;RP0=1, select bank1
  1268  027B  1C06               	btfss	6,0	;volatile
  1269  027C  0008               	return
  1270                           
  1271                           ;main.c: 133: EffectMode_t next_mode = (current_effect + 1) % EFFECT_COUNT;
  1272  027D  1283               	bcf	3,5	;RP0=0, select bank0
  1273  027E  2283               	fcall	PL12	;call to abstracted procedure
  1274  027F  228D               	fcall	___awmod
  1275  0280  0870               	movf	?___awmod,w
  1276  0281  00D3               	movwf	ws2812_update_RGB@next_mode
  1277                           
  1278                           ;main.c: 134: effect_execute(next_mode);
  1279  0282  28A2               	ljmp	_effect_execute
  1280  0283                     __end_of_ws2812_update_RGB:	
  1281  0283                     PL12:	
  1282  0283  0850               	movf	_current_effect,w	;volatile
  1283  0284  00F2               	movwf	___awmod@dividend
  1284  0285  01F3               	clrf	___awmod@dividend+1
  1285  0286  0AF2               	incf	___awmod@dividend,f
  1286  0287  1903               	skipnz
  1287  0288  0AF3               	incf	___awmod@dividend+1,f
  1288  0289  3007               	movlw	7
  1289  028A  00F0               	movwf	___awmod@divisor
  1290  028B  01F1               	clrf	___awmod@divisor+1
  1291  028C  0008               	return
  1292  028D                     __end_ofPL12:	
  1293                           
  1294                           	psect	text5
  1295  0086                     __ptext5:	
  1296 ;; *************** function _ws2812_send_color *****************
  1297 ;; Defined at:
  1298 ;;		line 104 in file "H:\8bit-RGB\main.c"
  1299 ;; Parameters:    Size  Location     Type
  1300 ;;  color           3    1[COMMON] struct .
  1301 ;; Auto vars:     Size  Location     Type
  1302 ;;		None
  1303 ;; Return value:  Size  Location     Type
  1304 ;;                  1    wreg      void 
  1305 ;; Registers used:
  1306 ;;		wreg, status,2, status,0, pclath, cstack
  1307 ;; Tracked objects:
  1308 ;;		On entry : 900/0
  1309 ;;		On exit  : 0/0
  1310 ;;		Unchanged: 0/0
  1311 ;; Data sizes:     COMMON   BANK0   BANK1
  1312 ;;      Params:         3       0       0
  1313 ;;      Locals:         0       0       0
  1314 ;;      Temps:          0       0       0
  1315 ;;      Totals:         3       0       0
  1316 ;;Total ram usage:        3 bytes
  1317 ;; Hardware stack levels used:    1
  1318 ;; Hardware stack levels required when called:    1
  1319 ;; This function calls:
  1320 ;;		_ws2812_send_byte
  1321 ;; This function is called by:
  1322 ;;		_ws2812_update_RGB
  1323 ;; This function uses a non-reentrant model
  1324 ;;
  1325                           
  1326                           
  1327                           ;psect for function _ws2812_send_color
  1328  0086                     _ws2812_send_color:	
  1329                           
  1330                           ;main.c: 105: ws2812_send_byte(color.r);
  1331                           
  1332                           ;incstack = 0
  1333                           ; Regs used in _ws2812_send_color: [wreg+status,2+status,0+pclath+cstack]
  1334  0086  0871               	movf	ws2812_send_color@color,w
  1335  0087  25B3               	fcall	_ws2812_send_byte
  1336                           
  1337                           ;main.c: 106: ws2812_send_byte(color.g);
  1338  0088  0872               	movf	ws2812_send_color@color+1,w
  1339  0089  25B3               	fcall	_ws2812_send_byte
  1340                           
  1341                           ;main.c: 107: ws2812_send_byte(color.b);
  1342  008A  0873               	movf	ws2812_send_color@color+2,w
  1343  008B  2DB3               	ljmp	_ws2812_send_byte
  1344  008C                     __end_of_ws2812_send_color:	
  1345                           
  1346                           	psect	text6
  1347  05B3                     __ptext6:	
  1348 ;; *************** function _ws2812_send_byte *****************
  1349 ;; Defined at:
  1350 ;;		line 33 in file "H:\8bit-RGB\main.c"
  1351 ;; Parameters:    Size  Location     Type
  1352 ;;  byte            1    wreg     unsigned char 
  1353 ;; Auto vars:     Size  Location     Type
  1354 ;;  byte            1    0[COMMON] unsigned char 
  1355 ;; Return value:  Size  Location     Type
  1356 ;;                  1    wreg      void 
  1357 ;; Registers used:
  1358 ;;		wreg
  1359 ;; Tracked objects:
  1360 ;;		On entry : 0/0
  1361 ;;		On exit  : 0/0
  1362 ;;		Unchanged: 0/0
  1363 ;; Data sizes:     COMMON   BANK0   BANK1
  1364 ;;      Params:         0       0       0
  1365 ;;      Locals:         1       0       0
  1366 ;;      Temps:          0       0       0
  1367 ;;      Totals:         1       0       0
  1368 ;;Total ram usage:        1 bytes
  1369 ;; Hardware stack levels used:    1
  1370 ;; This function calls:
  1371 ;;		Nothing
  1372 ;; This function is called by:
  1373 ;;		_ws2812_send_color
  1374 ;; This function uses a non-reentrant model
  1375 ;;
  1376                           
  1377                           
  1378                           ;psect for function _ws2812_send_byte
  1379  05B3                     _ws2812_send_byte:	
  1380                           
  1381                           ;incstack = 0
  1382                           ; Regs used in _ws2812_send_byte: [wreg]
  1383                           ;ws2812_send_byte@byte stored from wreg
  1384  05B3  00F0               	movwf	ws2812_send_byte@byte
  1385                           
  1386                           ;main.c: 34: GIE = 0;
  1387  05B4  138B               	bcf	11,7	;volatile
  1388                           
  1389                           ;main.c: 37: if (byte & 0x80) {
  1390  05B5  1FF0               	btfss	ws2812_send_byte@byte,7
  1391  05B6  2DC0               	goto	l1441
  1392                           
  1393                           ;main.c: 38: RB1 = 1; asm("nop"); asm("nop");
  1394  05B7  1283               	bcf	3,5	;RP0=0, select bank0
  1395  05B8  1486               	bsf	6,1	;volatile
  1396  05B9  0000               	nop	;# 
  1397  05BA  0000               	nop	;# 
  1398                           
  1399                           ;main.c: 39: RB1 = 0; asm("nop"); asm("nop");
  1400  05BB  1283               	bcf	3,5	;RP0=0, select bank0
  1401  05BC  1086               	bcf	6,1	;volatile
  1402  05BD  0000               	nop	;# 
  1403  05BE  0000               	nop	;# 
  1404                           
  1405                           ;main.c: 40: } else {
  1406  05BF  2DC8               	goto	l1442
  1407  05C0                     l1441:	
  1408                           
  1409                           ;main.c: 41: RB1 = 1; asm("nop");
  1410  05C0  1283               	bcf	3,5	;RP0=0, select bank0
  1411  05C1  1486               	bsf	6,1	;volatile
  1412  05C2  0000               	nop	;# 
  1413                           
  1414                           ;main.c: 42: RB1 = 0; asm("nop"); asm("nop"); asm("nop");
  1415  05C3  1283               	bcf	3,5	;RP0=0, select bank0
  1416  05C4  1086               	bcf	6,1	;volatile
  1417  05C5  0000               	nop	;# 
  1418  05C6  0000               	nop	;# 
  1419  05C7  0000               	nop	;# 
  1420  05C8                     l1442:	
  1421                           
  1422                           ;main.c: 43: }
  1423                           ;main.c: 45: if (byte & 0x40) {
  1424  05C8  1F70               	btfss	ws2812_send_byte@byte,6
  1425  05C9  2DD3               	goto	l1443
  1426                           
  1427                           ;main.c: 46: RB1 = 1; asm("nop"); asm("nop");
  1428  05CA  1283               	bcf	3,5	;RP0=0, select bank0
  1429  05CB  1486               	bsf	6,1	;volatile
  1430  05CC  0000               	nop	;# 
  1431  05CD  0000               	nop	;# 
  1432                           
  1433                           ;main.c: 47: RB1 = 0; asm("nop"); asm("nop");
  1434  05CE  1283               	bcf	3,5	;RP0=0, select bank0
  1435  05CF  1086               	bcf	6,1	;volatile
  1436  05D0  0000               	nop	;# 
  1437  05D1  0000               	nop	;# 
  1438                           
  1439                           ;main.c: 48: } else {
  1440  05D2  2DDB               	goto	l1444
  1441  05D3                     l1443:	
  1442                           
  1443                           ;main.c: 49: RB1 = 1; asm("nop");
  1444  05D3  1283               	bcf	3,5	;RP0=0, select bank0
  1445  05D4  1486               	bsf	6,1	;volatile
  1446  05D5  0000               	nop	;# 
  1447                           
  1448                           ;main.c: 50: RB1 = 0; asm("nop"); asm("nop"); asm("nop");
  1449  05D6  1283               	bcf	3,5	;RP0=0, select bank0
  1450  05D7  1086               	bcf	6,1	;volatile
  1451  05D8  0000               	nop	;# 
  1452  05D9  0000               	nop	;# 
  1453  05DA  0000               	nop	;# 
  1454  05DB                     l1444:	
  1455                           
  1456                           ;main.c: 51: }
  1457                           ;main.c: 53: if (byte & 0x20) {
  1458  05DB  1EF0               	btfss	ws2812_send_byte@byte,5
  1459  05DC  2DE6               	goto	l1445
  1460                           
  1461                           ;main.c: 54: RB1 = 1; asm("nop"); asm("nop");
  1462  05DD  1283               	bcf	3,5	;RP0=0, select bank0
  1463  05DE  1486               	bsf	6,1	;volatile
  1464  05DF  0000               	nop	;# 
  1465  05E0  0000               	nop	;# 
  1466                           
  1467                           ;main.c: 55: RB1 = 0; asm("nop"); asm("nop");
  1468  05E1  1283               	bcf	3,5	;RP0=0, select bank0
  1469  05E2  1086               	bcf	6,1	;volatile
  1470  05E3  0000               	nop	;# 
  1471  05E4  0000               	nop	;# 
  1472                           
  1473                           ;main.c: 56: } else {
  1474  05E5  2DEE               	goto	l1446
  1475  05E6                     l1445:	
  1476                           
  1477                           ;main.c: 57: RB1 = 1; asm("nop");
  1478  05E6  1283               	bcf	3,5	;RP0=0, select bank0
  1479  05E7  1486               	bsf	6,1	;volatile
  1480  05E8  0000               	nop	;# 
  1481                           
  1482                           ;main.c: 58: RB1 = 0; asm("nop"); asm("nop"); asm("nop");
  1483  05E9  1283               	bcf	3,5	;RP0=0, select bank0
  1484  05EA  1086               	bcf	6,1	;volatile
  1485  05EB  0000               	nop	;# 
  1486  05EC  0000               	nop	;# 
  1487  05ED  0000               	nop	;# 
  1488  05EE                     l1446:	
  1489                           
  1490                           ;main.c: 59: }
  1491                           ;main.c: 61: if (byte & 0x10) {
  1492  05EE  1E70               	btfss	ws2812_send_byte@byte,4
  1493  05EF  2DF9               	goto	l1447
  1494                           
  1495                           ;main.c: 62: RB1 = 1; asm("nop"); asm("nop");
  1496  05F0  1283               	bcf	3,5	;RP0=0, select bank0
  1497  05F1  1486               	bsf	6,1	;volatile
  1498  05F2  0000               	nop	;# 
  1499  05F3  0000               	nop	;# 
  1500                           
  1501                           ;main.c: 63: RB1 = 0; asm("nop"); asm("nop");
  1502  05F4  1283               	bcf	3,5	;RP0=0, select bank0
  1503  05F5  1086               	bcf	6,1	;volatile
  1504  05F6  0000               	nop	;# 
  1505  05F7  0000               	nop	;# 
  1506                           
  1507                           ;main.c: 64: } else {
  1508  05F8  2E01               	goto	l1448
  1509  05F9                     l1447:	
  1510                           
  1511                           ;main.c: 65: RB1 = 1; asm("nop");
  1512  05F9  1283               	bcf	3,5	;RP0=0, select bank0
  1513  05FA  1486               	bsf	6,1	;volatile
  1514  05FB  0000               	nop	;# 
  1515                           
  1516                           ;main.c: 66: RB1 = 0; asm("nop"); asm("nop"); asm("nop");
  1517  05FC  1283               	bcf	3,5	;RP0=0, select bank0
  1518  05FD  1086               	bcf	6,1	;volatile
  1519  05FE  0000               	nop	;# 
  1520  05FF  0000               	nop	;# 
  1521  0600  0000               	nop	;# 
  1522  0601                     l1448:	
  1523                           
  1524                           ;main.c: 67: }
  1525                           ;main.c: 69: if (byte & 0x08) {
  1526  0601  1DF0               	btfss	ws2812_send_byte@byte,3
  1527  0602  2E0C               	goto	l1449
  1528                           
  1529                           ;main.c: 70: RB1 = 1; asm("nop"); asm("nop");
  1530  0603  1283               	bcf	3,5	;RP0=0, select bank0
  1531  0604  1486               	bsf	6,1	;volatile
  1532  0605  0000               	nop	;# 
  1533  0606  0000               	nop	;# 
  1534                           
  1535                           ;main.c: 71: RB1 = 0; asm("nop"); asm("nop");
  1536  0607  1283               	bcf	3,5	;RP0=0, select bank0
  1537  0608  1086               	bcf	6,1	;volatile
  1538  0609  0000               	nop	;# 
  1539  060A  0000               	nop	;# 
  1540                           
  1541                           ;main.c: 72: } else {
  1542  060B  2E14               	goto	l1450
  1543  060C                     l1449:	
  1544                           
  1545                           ;main.c: 73: RB1 = 1; asm("nop");
  1546  060C  1283               	bcf	3,5	;RP0=0, select bank0
  1547  060D  1486               	bsf	6,1	;volatile
  1548  060E  0000               	nop	;# 
  1549                           
  1550                           ;main.c: 74: RB1 = 0; asm("nop"); asm("nop"); asm("nop");
  1551  060F  1283               	bcf	3,5	;RP0=0, select bank0
  1552  0610  1086               	bcf	6,1	;volatile
  1553  0611  0000               	nop	;# 
  1554  0612  0000               	nop	;# 
  1555  0613  0000               	nop	;# 
  1556  0614                     l1450:	
  1557                           
  1558                           ;main.c: 75: }
  1559                           ;main.c: 77: if (byte & 0x04) {
  1560  0614  1D70               	btfss	ws2812_send_byte@byte,2
  1561  0615  2E1F               	goto	l1451
  1562                           
  1563                           ;main.c: 78: RB1 = 1; asm("nop"); asm("nop");
  1564  0616  1283               	bcf	3,5	;RP0=0, select bank0
  1565  0617  1486               	bsf	6,1	;volatile
  1566  0618  0000               	nop	;# 
  1567  0619  0000               	nop	;# 
  1568                           
  1569                           ;main.c: 79: RB1 = 0; asm("nop"); asm("nop");
  1570  061A  1283               	bcf	3,5	;RP0=0, select bank0
  1571  061B  1086               	bcf	6,1	;volatile
  1572  061C  0000               	nop	;# 
  1573  061D  0000               	nop	;# 
  1574                           
  1575                           ;main.c: 80: } else {
  1576  061E  2E27               	goto	l1452
  1577  061F                     l1451:	
  1578                           
  1579                           ;main.c: 81: RB1 = 1; asm("nop");
  1580  061F  1283               	bcf	3,5	;RP0=0, select bank0
  1581  0620  1486               	bsf	6,1	;volatile
  1582  0621  0000               	nop	;# 
  1583                           
  1584                           ;main.c: 82: RB1 = 0; asm("nop"); asm("nop"); asm("nop");
  1585  0622  1283               	bcf	3,5	;RP0=0, select bank0
  1586  0623  1086               	bcf	6,1	;volatile
  1587  0624  0000               	nop	;# 
  1588  0625  0000               	nop	;# 
  1589  0626  0000               	nop	;# 
  1590  0627                     l1452:	
  1591                           
  1592                           ;main.c: 83: }
  1593                           ;main.c: 85: if (byte & 0x02) {
  1594  0627  1CF0               	btfss	ws2812_send_byte@byte,1
  1595  0628  2E32               	goto	l1453
  1596                           
  1597                           ;main.c: 86: RB1 = 1; asm("nop"); asm("nop");
  1598  0629  1283               	bcf	3,5	;RP0=0, select bank0
  1599  062A  1486               	bsf	6,1	;volatile
  1600  062B  0000               	nop	;# 
  1601  062C  0000               	nop	;# 
  1602                           
  1603                           ;main.c: 87: RB1 = 0; asm("nop"); asm("nop");
  1604  062D  1283               	bcf	3,5	;RP0=0, select bank0
  1605  062E  1086               	bcf	6,1	;volatile
  1606  062F  0000               	nop	;# 
  1607  0630  0000               	nop	;# 
  1608                           
  1609                           ;main.c: 88: } else {
  1610  0631  2E3A               	goto	l1454
  1611  0632                     l1453:	
  1612                           
  1613                           ;main.c: 89: RB1 = 1; asm("nop");
  1614  0632  1283               	bcf	3,5	;RP0=0, select bank0
  1615  0633  1486               	bsf	6,1	;volatile
  1616  0634  0000               	nop	;# 
  1617                           
  1618                           ;main.c: 90: RB1 = 0; asm("nop"); asm("nop"); asm("nop");
  1619  0635  1283               	bcf	3,5	;RP0=0, select bank0
  1620  0636  1086               	bcf	6,1	;volatile
  1621  0637  0000               	nop	;# 
  1622  0638  0000               	nop	;# 
  1623  0639  0000               	nop	;# 
  1624  063A                     l1454:	
  1625                           
  1626                           ;main.c: 91: }
  1627                           ;main.c: 93: if (byte & 0x01) {
  1628  063A  1C70               	btfss	ws2812_send_byte@byte,0
  1629  063B  2E45               	goto	l1455
  1630                           
  1631                           ;main.c: 94: RB1 = 1; asm("nop"); asm("nop");
  1632  063C  1283               	bcf	3,5	;RP0=0, select bank0
  1633  063D  1486               	bsf	6,1	;volatile
  1634  063E  0000               	nop	;# 
  1635  063F  0000               	nop	;# 
  1636                           
  1637                           ;main.c: 95: RB1 = 0; asm("nop"); asm("nop");
  1638  0640  1283               	bcf	3,5	;RP0=0, select bank0
  1639  0641  1086               	bcf	6,1	;volatile
  1640  0642  0000               	nop	;# 
  1641  0643  0000               	nop	;# 
  1642                           
  1643                           ;main.c: 96: } else {
  1644  0644  2E4D               	goto	l1456
  1645  0645                     l1455:	
  1646                           
  1647                           ;main.c: 97: RB1 = 1; asm("nop");
  1648  0645  1283               	bcf	3,5	;RP0=0, select bank0
  1649  0646  1486               	bsf	6,1	;volatile
  1650  0647  0000               	nop	;# 
  1651                           
  1652                           ;main.c: 98: RB1 = 0; asm("nop"); asm("nop"); asm("nop");
  1653  0648  1283               	bcf	3,5	;RP0=0, select bank0
  1654  0649  1086               	bcf	6,1	;volatile
  1655  064A  0000               	nop	;# 
  1656  064B  0000               	nop	;# 
  1657  064C  0000               	nop	;# 
  1658  064D                     l1456:	
  1659                           
  1660                           ;main.c: 99: }
  1661                           ;main.c: 101: GIE = 1;
  1662  064D  178B               	bsf	11,7	;volatile
  1663  064E  0008               	return
  1664  064F                     __end_of_ws2812_send_byte:	
  1665                           
  1666                           	psect	text7
  1667  0081                     __ptext7:	
  1668 ;; *************** function _ws2812_reset *****************
  1669 ;; Defined at:
  1670 ;;		line 110 in file "H:\8bit-RGB\main.c"
  1671 ;; Parameters:    Size  Location     Type
  1672 ;;		None
  1673 ;; Auto vars:     Size  Location     Type
  1674 ;;		None
  1675 ;; Return value:  Size  Location     Type
  1676 ;;                  1    wreg      void 
  1677 ;; Registers used:
  1678 ;;		wreg, status,2, status,0, pclath, cstack
  1679 ;; Tracked objects:
  1680 ;;		On entry : 100/0
  1681 ;;		On exit  : 0/0
  1682 ;;		Unchanged: 0/0
  1683 ;; Data sizes:     COMMON   BANK0   BANK1
  1684 ;;      Params:         0       0       0
  1685 ;;      Locals:         0       0       0
  1686 ;;      Temps:          0       0       0
  1687 ;;      Totals:         0       0       0
  1688 ;;Total ram usage:        0 bytes
  1689 ;; Hardware stack levels used:    1
  1690 ;; Hardware stack levels required when called:    1
  1691 ;; This function calls:
  1692 ;;		_delay_ms
  1693 ;; This function is called by:
  1694 ;;		_ws2812_update_RGB
  1695 ;; This function uses a non-reentrant model
  1696 ;;
  1697                           
  1698                           
  1699                           ;psect for function _ws2812_reset
  1700  0081                     _ws2812_reset:	
  1701                           
  1702                           ;main.c: 111: RB1 = 0;
  1703                           
  1704                           ;incstack = 0
  1705                           ; Regs used in _ws2812_reset: [wreg+status,2+status,0+pclath+cstack]
  1706  0081  1086               	bcf	6,1	;volatile
  1707                           
  1708                           ;main.c: 112: delay_ms(1);
  1709  0082  01F0               	clrf	delay_ms@ms
  1710  0083  0AF0               	incf	delay_ms@ms,f
  1711  0084  01F1               	clrf	delay_ms@ms+1
  1712  0085  28F2               	ljmp	l3085
  1713  0086                     __end_of_ws2812_reset:	
  1714                           
  1715                           	psect	text8
  1716  00F2                     __ptext8:	
  1717 ;; *************** function _delay_ms *****************
  1718 ;; Defined at:
  1719 ;;		line 22 in file "H:\8bit-RGB\main.c"
  1720 ;; Parameters:    Size  Location     Type
  1721 ;;  ms              2    0[COMMON] unsigned int 
  1722 ;; Auto vars:     Size  Location     Type
  1723 ;;  j               2    4[COMMON] unsigned int 
  1724 ;;  i               2    2[COMMON] unsigned int 
  1725 ;; Return value:  Size  Location     Type
  1726 ;;                  1    wreg      void 
  1727 ;; Registers used:
  1728 ;;		wreg, status,2, status,0
  1729 ;; Tracked objects:
  1730 ;;		On entry : 0/0
  1731 ;;		On exit  : 0/0
  1732 ;;		Unchanged: 0/0
  1733 ;; Data sizes:     COMMON   BANK0   BANK1
  1734 ;;      Params:         2       0       0
  1735 ;;      Locals:         4       0       0
  1736 ;;      Temps:          0       0       0
  1737 ;;      Totals:         6       0       0
  1738 ;;Total ram usage:        6 bytes
  1739 ;; Hardware stack levels used:    1
  1740 ;; This function calls:
  1741 ;;		Nothing
  1742 ;; This function is called by:
  1743 ;;		_ws2812_reset
  1744 ;;		_key_scan
  1745 ;;		_main
  1746 ;; This function uses a non-reentrant model
  1747 ;;
  1748                           
  1749                           
  1750                           ;psect for function _delay_ms
  1751  00F2                     _delay_ms:	
  1752  00F2                     l3085:	
  1753                           ;incstack = 0
  1754                           ; Regs used in _delay_ms: [wreg+status,2+status,0]
  1755                           
  1756                           
  1757                           ;main.c: 23: unsigned int i, j;
  1758                           ;main.c: 24: for (i = 0; i < ms; i++) {
  1759  00F2  01F2               	clrf	delay_ms@i
  1760  00F3  01F3               	clrf	delay_ms@i+1
  1761  00F4                     l3099:	
  1762  00F4  0871               	movf	delay_ms@ms+1,w
  1763  00F5  0273               	subwf	delay_ms@i+1,w
  1764  00F6  1D03               	skipz
  1765  00F7  28FA               	goto	u1245
  1766  00F8  0870               	movf	delay_ms@ms,w
  1767  00F9  0272               	subwf	delay_ms@i,w
  1768  00FA                     u1245:	
  1769  00FA  1803               	btfsc	3,0
  1770  00FB  0008               	return
  1771                           
  1772                           ;main.c: 25: for (j = 0; j < 1333; j++) {
  1773  00FC  01F4               	clrf	delay_ms@j
  1774  00FD  01F5               	clrf	delay_ms@j+1
  1775  00FE                     l1435:	
  1776  00FE  0000               	nop	;# 
  1777  00FF  0AF4               	incf	delay_ms@j,f
  1778  0100  1903               	skipnz
  1779  0101  0AF5               	incf	delay_ms@j+1,f
  1780  0102  3005               	movlw	5
  1781  0103  0275               	subwf	delay_ms@j+1,w
  1782  0104  3035               	movlw	53
  1783  0105  1903               	skipnz
  1784  0106  0274               	subwf	delay_ms@j,w
  1785  0107  1C03               	skipc
  1786  0108  28FE               	goto	l1435
  1787  0109  0AF2               	incf	delay_ms@i,f
  1788  010A  1903               	skipnz
  1789  010B  0AF3               	incf	delay_ms@i+1,f
  1790  010C  28F4               	goto	l3099
  1791  010D                     __end_of_delay_ms:	
  1792                           
  1793                           	psect	text9
  1794  00A2                     __ptext9:	
  1795 ;; *************** function _effect_execute *****************
  1796 ;; Defined at:
  1797 ;;		line 471 in file "H:\8bit-RGB\effects.c"
  1798 ;; Parameters:    Size  Location     Type
  1799 ;;  mode            1    wreg     enum E587
  1800 ;; Auto vars:     Size  Location     Type
  1801 ;;  mode            1   13[COMMON] enum E587
  1802 ;; Return value:  Size  Location     Type
  1803 ;;                  1    wreg      void 
  1804 ;; Registers used:
  1805 ;;		wreg, fsr0l, fsr0h, status,2, status,0, pclath, cstack
  1806 ;; Tracked objects:
  1807 ;;		On entry : 100/0
  1808 ;;		On exit  : 100/0
  1809 ;;		Unchanged: 0/0
  1810 ;; Data sizes:     COMMON   BANK0   BANK1
  1811 ;;      Params:         0       0       0
  1812 ;;      Locals:         1       0       0
  1813 ;;      Temps:          0       0       0
  1814 ;;      Totals:         1       0       0
  1815 ;;Total ram usage:        1 bytes
  1816 ;; Hardware stack levels used:    1
  1817 ;; Hardware stack levels required when called:    2
  1818 ;; This function calls:
  1819 ;;		_breath_init
  1820 ;;		_chase_init
  1821 ;;		_expand_init
  1822 ;;		_marquee_init
  1823 ;;		_police_init
  1824 ;;		_stack_init
  1825 ;;		_twinkle_init
  1826 ;; This function is called by:
  1827 ;;		_ws2812_update_RGB
  1828 ;;		_key_scan
  1829 ;; This function uses a non-reentrant model
  1830 ;;
  1831                           
  1832                           
  1833                           ;psect for function _effect_execute
  1834  00A2                     _effect_execute:	
  1835                           
  1836                           ;incstack = 0
  1837                           ; Regs used in _effect_execute: [wreg-fsr0h+status,2+status,0+pclath+cstack]
  1838                           ;effect_execute@mode stored from wreg
  1839  00A2  00FD               	movwf	effect_execute@mode
  1840                           
  1841                           ;effects.c: 472: current_effect = mode;
  1842  00A3  00D0               	movwf	_current_effect	;volatile
  1843                           
  1844                           ;effects.c: 473: effects[mode].init();
  1845  00A4  1003               	clrc
  1846  00A5  0D7D               	rlf	effect_execute@mode,w
  1847  00A6  3E01               	addlw	low ((_effects-__stringbase)| (0+32768))
  1848  00A7  0084               	movwf	4
  1849  00A8  2015               	fcall	stringdir
  1850  00A9  2001               	fcall	fptable
  1851  00AA  0008               	return
  1852  00AB                     __end_of_effect_execute:	
  1853                           
  1854                           	psect	text10
  1855  00C0                     __ptext10:	
  1856 ;; *************** function _effects_update *****************
  1857 ;; Defined at:
  1858 ;;		line 477 in file "H:\8bit-RGB\effects.c"
  1859 ;; Parameters:    Size  Location     Type
  1860 ;;		None
  1861 ;; Auto vars:     Size  Location     Type
  1862 ;;		None
  1863 ;; Return value:  Size  Location     Type
  1864 ;;                  1    wreg      void 
  1865 ;; Registers used:
  1866 ;;		wreg, fsr0l, fsr0h, status,2, status,0, pclath, cstack
  1867 ;; Tracked objects:
  1868 ;;		On entry : 100/0
  1869 ;;		On exit  : 100/0
  1870 ;;		Unchanged: 0/0
  1871 ;; Data sizes:     COMMON   BANK0   BANK1
  1872 ;;      Params:         0       0       0
  1873 ;;      Locals:         0       0       0
  1874 ;;      Temps:          0       0       0
  1875 ;;      Totals:         0       0       0
  1876 ;;Total ram usage:        0 bytes
  1877 ;; Hardware stack levels used:    1
  1878 ;; Hardware stack levels required when called:    3
  1879 ;; This function calls:
  1880 ;;		_breath_update
  1881 ;;		_chase_update
  1882 ;;		_expand_update
  1883 ;;		_marquee_update
  1884 ;;		_police_update
  1885 ;;		_stack_update
  1886 ;;		_twinkle_update
  1887 ;; This function is called by:
  1888 ;;		_main
  1889 ;; This function uses a non-reentrant model
  1890 ;;
  1891                           
  1892                           
  1893                           ;psect for function _effects_update
  1894  00C0                     _effects_update:	
  1895                           
  1896                           ;effects.c: 478: if (current_effect < EFFECT_COUNT) {
  1897                           
  1898                           ;incstack = 0
  1899                           ; Regs used in _effects_update: [wreg-fsr0h+status,2+status,0+pclath+cstack]
  1900  00C0  3007               	movlw	7
  1901  00C1  0250               	subwf	_current_effect,w	;volatile
  1902  00C2  1803               	skipnc
  1903  00C3  0008               	return
  1904                           
  1905                           ;effects.c: 479: effects[current_effect].update();
  1906  00C4  1003               	clrc
  1907  00C5  0D50               	rlf	_current_effect,w	;volatile
  1908  00C6  3E02               	addlw	low (((_effects-__stringbase)| (0+32768)+1))
  1909  00C7  0084               	movwf	4
  1910  00C8  2015               	fcall	stringdir
  1911  00C9  2001               	fcall	fptable
  1912  00CA  0008               	return
  1913  00CB                     __end_of_effects_update:	
  1914                           
  1915                           	psect	text11
  1916  021E                     __ptext11:	
  1917 ;; *************** function _police_update *****************
  1918 ;; Defined at:
  1919 ;;		line 432 in file "H:\8bit-RGB\effects.c"
  1920 ;; Parameters:    Size  Location     Type
  1921 ;;		None
  1922 ;; Auto vars:     Size  Location     Type
  1923 ;;  i               1    3[COMMON] unsigned char 
  1924 ;;  b               1    2[COMMON] unsigned char 
  1925 ;;  r               1    1[COMMON] unsigned char 
  1926 ;;  g               1    0[COMMON] unsigned char 
  1927 ;; Return value:  Size  Location     Type
  1928 ;;                  1    wreg      void 
  1929 ;; Registers used:
  1930 ;;		wreg, fsr0l, fsr0h, status,2, status,0
  1931 ;; Tracked objects:
  1932 ;;		On entry : 100/0
  1933 ;;		On exit  : 100/0
  1934 ;;		Unchanged: 0/0
  1935 ;; Data sizes:     COMMON   BANK0   BANK1
  1936 ;;      Params:         0       0       0
  1937 ;;      Locals:         4       0       0
  1938 ;;      Temps:          0       0       0
  1939 ;;      Totals:         4       0       0
  1940 ;;Total ram usage:        4 bytes
  1941 ;; Hardware stack levels used:    1
  1942 ;; This function calls:
  1943 ;;		Nothing
  1944 ;; This function is called by:
  1945 ;;		_effects_update
  1946 ;; This function uses a non-reentrant model
  1947 ;;
  1948                           
  1949                           
  1950                           ;psect for function _police_update
  1951  021E                     _police_update:	
  1952  021E  3005               	movlw	5
  1953                           
  1954                           ;effects.c: 433: police_counter++;
  1955                           
  1956                           ;incstack = 0
  1957                           ; Regs used in _police_update: [wreg-fsr0h+status,2+status,0]
  1958  021F  0ABC               	incf	_police_counter,f
  1959                           
  1960                           ;effects.c: 434: if (police_counter < 5) return;
  1961  0220  023C               	subwf	_police_counter,w
  1962  0221  1C03               	btfss	3,0
  1963  0222  0008               	return
  1964                           
  1965                           ;effects.c: 435: police_counter = 0;
  1966  0223  01BC               	clrf	_police_counter
  1967                           
  1968                           ;effects.c: 437: unsigned char r = 0, g = 0, b = 0;
  1969  0224  01F1               	clrf	police_update@r
  1970  0225  01F0               	clrf	police_update@g
  1971  0226  01F2               	clrf	police_update@b
  1972                           
  1973                           ;effects.c: 438: if (police_state == 0) {
  1974  0227  083D               	movf	_police_state,w
  1975                           
  1976                           ;effects.c: 439: r = 255;
  1977  0228  30FF               	movlw	255
  1978  0229  1D03               	btfss	3,2
  1979  022A  2A2D               	goto	L1
  1980  022B  00F1               	movwf	police_update@r
  1981                           
  1982                           ;effects.c: 440: } else {
  1983  022C  2A2E               	goto	l3685
  1984  022D                     L1:	
  1985                           ;effects.c: 441: b = 255;
  1986                           
  1987  022D  00F2               	movwf	police_update@b
  1988  022E                     l3685:	
  1989                           
  1990                           ;effects.c: 442: }
  1991                           ;effects.c: 444: for (unsigned char i = 0; i < 24; i++) {
  1992  022E  01F3               	clrf	police_update@i
  1993  022F                     l3691:	
  1994                           
  1995                           ;effects.c: 445: leds[i].r = r;
  1996  022F  0873               	movf	police_update@i,w
  1997  0230  0773               	addwf	police_update@i,w
  1998  0231  0773               	addwf	police_update@i,w
  1999  0232  3EA0               	addlw	(low (_leds| 0))& (0+255)
  2000  0233  0084               	movwf	4
  2001  0234  0871               	movf	police_update@r,w
  2002  0235  1383               	bcf	3,7	;select IRP bank1
  2003  0236  0080               	movwf	0
  2004                           
  2005                           ;effects.c: 446: leds[i].g = g;
  2006  0237  0873               	movf	police_update@i,w
  2007  0238  0773               	addwf	police_update@i,w
  2008  0239  0773               	addwf	police_update@i,w
  2009  023A  3EA1               	addlw	(low ((_leds| 0+1)))& (0+255)
  2010  023B  0084               	movwf	4
  2011  023C  0870               	movf	police_update@g,w
  2012  023D  0080               	movwf	0
  2013                           
  2014                           ;effects.c: 447: leds[i].b = b;
  2015  023E  0873               	movf	police_update@i,w
  2016  023F  0773               	addwf	police_update@i,w
  2017  0240  0773               	addwf	police_update@i,w
  2018  0241  3EA2               	addlw	(low ((_leds| 0+2)))& (0+255)
  2019  0242  0084               	movwf	4
  2020  0243  0872               	movf	police_update@b,w
  2021  0244  0080               	movwf	0
  2022  0245  3018               	movlw	24
  2023  0246  0AF3               	incf	police_update@i,f
  2024  0247  0273               	subwf	police_update@i,w
  2025  0248  1C03               	skipc
  2026  0249  2A2F               	goto	l3691
  2027                           
  2028                           ;effects.c: 448: }
  2029                           ;effects.c: 450: police_state = !police_state;
  2030  024A  083D               	movf	_police_state,w
  2031  024B  1D03               	btfss	3,2
  2032  024C  2A4F               	goto	u1890
  2033  024D  3001               	movlw	1
  2034  024E  2A50               	goto	u1900
  2035  024F                     u1890:	
  2036  024F  3000               	movlw	0
  2037  0250                     u1900:	
  2038  0250  00BD               	movwf	_police_state
  2039  0251  0008               	return
  2040  0252                     __end_of_police_update:	
  2041                           
  2042                           	psect	text12
  2043  03C5                     __ptext12:	
  2044 ;; *************** function _stack_update *****************
  2045 ;; Defined at:
  2046 ;;		line 371 in file "H:\8bit-RGB\effects.c"
  2047 ;; Parameters:    Size  Location     Type
  2048 ;;		None
  2049 ;; Auto vars:     Size  Location     Type
  2050 ;;  i               1    2[COMMON] unsigned char 
  2051 ;;  i               1    1[COMMON] unsigned char 
  2052 ;; Return value:  Size  Location     Type
  2053 ;;                  1    wreg      void 
  2054 ;; Registers used:
  2055 ;;		wreg, fsr0l, fsr0h, status,2, status,0, pclath, cstack
  2056 ;; Tracked objects:
  2057 ;;		On entry : 100/0
  2058 ;;		On exit  : 100/0
  2059 ;;		Unchanged: 0/0
  2060 ;; Data sizes:     COMMON   BANK0   BANK1
  2061 ;;      Params:         0       0       0
  2062 ;;      Locals:         2       0       0
  2063 ;;      Temps:          0       0       0
  2064 ;;      Totals:         2       0       0
  2065 ;;Total ram usage:        2 bytes
  2066 ;; Hardware stack levels used:    1
  2067 ;; Hardware stack levels required when called:    1
  2068 ;; This function calls:
  2069 ;;		_stack_init
  2070 ;; This function is called by:
  2071 ;;		_effects_update
  2072 ;; This function uses a non-reentrant model
  2073 ;;
  2074                           
  2075                           
  2076                           ;psect for function _stack_update
  2077  03C5                     _stack_update:	
  2078                           
  2079                           ;effects.c: 373: static unsigned char counter = 0;
  2080                           ;effects.c: 374: counter++;
  2081                           
  2082                           ;incstack = 0
  2083                           ; Regs used in _stack_update: [wreg-fsr0h+status,2+status,0+pclath+cstack]
  2084  03C5  0ABE               	incf	stack_update@counter,f
  2085                           
  2086                           ;effects.c: 375: if (counter < 1) return;
  2087  03C6  083E               	movf	stack_update@counter,w
  2088  03C7  1903               	btfsc	3,2
  2089  03C8  0008               	return
  2090  03C9  3018               	movlw	24
  2091                           
  2092                           ;effects.c: 376: counter = 0;
  2093  03CA  01BE               	clrf	stack_update@counter
  2094                           
  2095                           ;effects.c: 379: if (stack_lit_count >= 24) {
  2096  03CB  0240               	subwf	_stack_lit_count,w
  2097  03CC  1C03               	skipc
  2098  03CD  2BD4               	goto	l3633
  2099  03CE  301F               	movlw	31
  2100                           
  2101                           ;effects.c: 380: stack_delay++;
  2102  03CF  0ABF               	incf	_stack_delay,f
  2103                           
  2104                           ;effects.c: 381: if (stack_delay > 30) {
  2105  03D0  023F               	subwf	_stack_delay,w
  2106  03D1  1C03               	skipc
  2107  03D2  0008               	return
  2108                           
  2109                           ;effects.c: 382: stack_init();
  2110  03D3  2962               	ljmp	l3055
  2111  03D4                     l3633:	
  2112                           
  2113                           ;effects.c: 385: }
  2114                           ;effects.c: 388: for (unsigned char i = 0; i < 24; i++) {
  2115  03D4  01F1               	clrf	stack_update@i
  2116  03D5                     l3639:	
  2117                           
  2118                           ;effects.c: 389: leds[i].r = 0;
  2119  03D5  0871               	movf	stack_update@i,w
  2120  03D6  0771               	addwf	stack_update@i,w
  2121  03D7  0771               	addwf	stack_update@i,w
  2122  03D8  3EA0               	addlw	(low (_leds| 0))& (0+255)
  2123  03D9  0084               	movwf	4
  2124  03DA  1383               	bcf	3,7	;select IRP bank1
  2125  03DB  0180               	clrf	0
  2126                           
  2127                           ;effects.c: 390: leds[i].g = 0;
  2128  03DC  0871               	movf	stack_update@i,w
  2129  03DD  0771               	addwf	stack_update@i,w
  2130  03DE  0771               	addwf	stack_update@i,w
  2131  03DF  3EA1               	addlw	(low ((_leds| 0+1)))& (0+255)
  2132  03E0  0084               	movwf	4
  2133  03E1  0180               	clrf	0
  2134                           
  2135                           ;effects.c: 391: leds[i].b = 0;
  2136  03E2  0871               	movf	stack_update@i,w
  2137  03E3  0771               	addwf	stack_update@i,w
  2138  03E4  0771               	addwf	stack_update@i,w
  2139  03E5  3EA2               	addlw	(low ((_leds| 0+2)))& (0+255)
  2140  03E6  0084               	movwf	4
  2141  03E7  3018               	movlw	24
  2142  03E8  0180               	clrf	0
  2143  03E9  0AF1               	incf	stack_update@i,f
  2144  03EA  0271               	subwf	stack_update@i,w
  2145  03EB  1C03               	skipc
  2146  03EC  2BD5               	goto	l3639
  2147                           
  2148                           ;effects.c: 392: }
  2149                           ;effects.c: 395: for (unsigned char i = stack_target + 1; i < 24; i++) {
  2150  03ED  085E               	movf	_stack_target,w
  2151  03EE  3E01               	addlw	1
  2152  03EF  00F2               	movwf	stack_update@i_428
  2153  03F0                     l3647:	
  2154  03F0  3018               	movlw	24
  2155  03F1  0272               	subwf	stack_update@i_428,w
  2156  03F2  1803               	btfsc	3,0
  2157  03F3  2C0B               	goto	l3657
  2158                           
  2159                           ;effects.c: 396: leds[i].r = 255;
  2160  03F4  0872               	movf	stack_update@i_428,w
  2161  03F5  0772               	addwf	stack_update@i_428,w
  2162  03F6  0772               	addwf	stack_update@i_428,w
  2163  03F7  3EA0               	addlw	(low (_leds| 0))& (0+255)
  2164  03F8  0084               	movwf	4
  2165  03F9  30FF               	movlw	255
  2166  03FA  0080               	movwf	0
  2167                           
  2168                           ;effects.c: 397: leds[i].g = 100;
  2169  03FB  0872               	movf	stack_update@i_428,w
  2170  03FC  0772               	addwf	stack_update@i_428,w
  2171  03FD  0772               	addwf	stack_update@i_428,w
  2172  03FE  3EA1               	addlw	(low ((_leds| 0+1)))& (0+255)
  2173  03FF  0084               	movwf	4
  2174  0400  3064               	movlw	100
  2175  0401  0080               	movwf	0
  2176                           
  2177                           ;effects.c: 398: leds[i].b = 50;
  2178  0402  0872               	movf	stack_update@i_428,w
  2179  0403  0772               	addwf	stack_update@i_428,w
  2180  0404  0772               	addwf	stack_update@i_428,w
  2181  0405  3EA2               	addlw	(low ((_leds| 0+2)))& (0+255)
  2182  0406  0084               	movwf	4
  2183  0407  3032               	movlw	50
  2184  0408  0080               	movwf	0
  2185  0409  0AF2               	incf	stack_update@i_428,f
  2186  040A  2BF0               	goto	l3647
  2187  040B                     l3657:	
  2188                           
  2189                           ;effects.c: 399: }
  2190                           ;effects.c: 402: leds[stack_runner].r = 255;
  2191  040B  0841               	movf	_stack_runner,w
  2192  040C  0741               	addwf	_stack_runner,w
  2193  040D  0741               	addwf	_stack_runner,w
  2194  040E  3EA0               	addlw	(low (_leds| 0))& (0+255)
  2195                           
  2196                           ;effects.c: 403: leds[stack_runner].g = 255;
  2197  040F  2420               	fcall	PL26	;call to abstracted procedure
  2198  0410  3EA1               	addlw	(low ((_leds| 0+1)))& (0+255)
  2199                           
  2200                           ;effects.c: 404: leds[stack_runner].b = 0;
  2201  0411  2420               	fcall	PL26	;call to abstracted procedure
  2202  0412  3EA2               	addlw	(low ((_leds| 0+2)))& (0+255)
  2203  0413  0084               	movwf	4
  2204  0414  0180               	clrf	0
  2205                           
  2206                           ;effects.c: 407: stack_runner++;
  2207  0415  0AC1               	incf	_stack_runner,f
  2208                           
  2209                           ;effects.c: 408: if (stack_runner > stack_target) {
  2210  0416  0841               	movf	_stack_runner,w
  2211  0417  025E               	subwf	_stack_target,w
  2212  0418  1803               	skipnc
  2213  0419  0008               	return
  2214                           
  2215                           ;effects.c: 409: stack_lit_count++;
  2216  041A  0AC0               	incf	_stack_lit_count,f
  2217                           
  2218                           ;effects.c: 410: if (stack_target > 0) {
  2219  041B  085E               	movf	_stack_target,w
  2220  041C  1D03               	btfss	3,2
  2221                           
  2222                           ;effects.c: 411: stack_target--;
  2223  041D  03DE               	decf	_stack_target,f
  2224                           
  2225                           ;effects.c: 412: }
  2226                           ;effects.c: 413: stack_runner = 0;
  2227  041E  01C1               	clrf	_stack_runner
  2228  041F  0008               	return
  2229  0420                     __end_of_stack_update:	
  2230  0420                     PL26:	
  2231  0420  0084               	movwf	4
  2232  0421  30FF               	movlw	255
  2233  0422  0080               	movwf	0
  2234  0423  0841               	movf	_stack_runner,w
  2235  0424  0741               	addwf	_stack_runner,w
  2236  0425  0741               	addwf	_stack_runner,w
  2237  0426  0008               	return
  2238  0427                     __end_ofPL26:	
  2239                           
  2240                           	psect	text13
  2241  0427                     __ptext13:	
  2242 ;; *************** function _marquee_update *****************
  2243 ;; Defined at:
  2244 ;;		line 308 in file "H:\8bit-RGB\effects.c"
  2245 ;; Parameters:    Size  Location     Type
  2246 ;;		None
  2247 ;; Auto vars:     Size  Location     Type
  2248 ;;  pos             1   10[COMMON] unsigned char 
  2249 ;;  i               1   11[COMMON] unsigned char 
  2250 ;;  i               1   12[COMMON] unsigned char 
  2251 ;;  b               1    9[COMMON] unsigned char 
  2252 ;;  g               1    8[COMMON] unsigned char 
  2253 ;;  r               1    7[COMMON] unsigned char 
  2254 ;;  old_pos         1    6[COMMON] unsigned char 
  2255 ;; Return value:  Size  Location     Type
  2256 ;;                  1    wreg      void 
  2257 ;; Registers used:
  2258 ;;		wreg, fsr0l, fsr0h, status,2, status,0, pclath, cstack
  2259 ;; Tracked objects:
  2260 ;;		On entry : 100/0
  2261 ;;		On exit  : 100/0
  2262 ;;		Unchanged: 0/0
  2263 ;; Data sizes:     COMMON   BANK0   BANK1
  2264 ;;      Params:         0       0       0
  2265 ;;      Locals:         7       0       0
  2266 ;;      Temps:          0       0       0
  2267 ;;      Totals:         7       0       0
  2268 ;;Total ram usage:        7 bytes
  2269 ;; Hardware stack levels used:    1
  2270 ;; Hardware stack levels required when called:    1
  2271 ;; This function calls:
  2272 ;;		___awmod
  2273 ;; This function is called by:
  2274 ;;		_effects_update
  2275 ;; This function uses a non-reentrant model
  2276 ;;
  2277                           
  2278                           
  2279                           ;psect for function _marquee_update
  2280  0427                     _marquee_update:	
  2281  0427  3014               	movlw	20
  2282                           
  2283                           ;effects.c: 310: static unsigned char counter = 0;
  2284                           ;effects.c: 311: static unsigned char color_index = 0;
  2285                           ;effects.c: 313: counter++;
  2286                           
  2287                           ;incstack = 0
  2288                           ; Regs used in _marquee_update: [wreg-fsr0h+status,2+status,0+pclath+cstack]
  2289  0428  0AC3               	incf	marquee_update@counter,f
  2290                           
  2291                           ;effects.c: 314: if (counter < 2 * 10) return;
  2292  0429  0243               	subwf	marquee_update@counter,w
  2293  042A  1C03               	btfss	3,0
  2294  042B  0008               	return
  2295                           
  2296                           ;effects.c: 315: counter = 0;
  2297  042C  01C3               	clrf	marquee_update@counter
  2298                           
  2299                           ;effects.c: 318: for (unsigned char i = 0; i < 24; i++) {
  2300  042D  01FC               	clrf	marquee_update@i
  2301  042E                     l3537:	
  2302                           
  2303                           ;effects.c: 319: leds[i].r = 0;
  2304  042E  087C               	movf	marquee_update@i,w
  2305  042F  077C               	addwf	marquee_update@i,w
  2306  0430  077C               	addwf	marquee_update@i,w
  2307  0431  3EA0               	addlw	(low (_leds| 0))& (0+255)
  2308  0432  0084               	movwf	4
  2309  0433  1383               	bcf	3,7	;select IRP bank1
  2310  0434  0180               	clrf	0
  2311                           
  2312                           ;effects.c: 320: leds[i].g = 0;
  2313  0435  087C               	movf	marquee_update@i,w
  2314  0436  077C               	addwf	marquee_update@i,w
  2315  0437  077C               	addwf	marquee_update@i,w
  2316  0438  3EA1               	addlw	(low ((_leds| 0+1)))& (0+255)
  2317  0439  0084               	movwf	4
  2318  043A  0180               	clrf	0
  2319                           
  2320                           ;effects.c: 321: leds[i].b = 0;
  2321  043B  087C               	movf	marquee_update@i,w
  2322  043C  077C               	addwf	marquee_update@i,w
  2323  043D  077C               	addwf	marquee_update@i,w
  2324  043E  3EA2               	addlw	(low ((_leds| 0+2)))& (0+255)
  2325  043F  0084               	movwf	4
  2326  0440  3018               	movlw	24
  2327  0441  0180               	clrf	0
  2328  0442  0AFC               	incf	marquee_update@i,f
  2329  0443  027C               	subwf	marquee_update@i,w
  2330  0444  1C03               	skipc
  2331  0445  2C2E               	goto	l3537
  2332                           
  2333                           ;effects.c: 322: }
  2334                           ;effects.c: 325: unsigned char r = 0, g = 0, b = 0;
  2335  0446  01F7               	clrf	marquee_update@r
  2336  0447  01F8               	clrf	marquee_update@g
  2337  0448  01F9               	clrf	marquee_update@b
  2338                           
  2339                           ;effects.c: 326: switch (color_index) {
  2340  0449  2C62               	goto	l3579
  2341  044A                     l3545:	
  2342  044A  30FF               	movlw	255
  2343  044B  00F7               	movwf	marquee_update@r
  2344  044C  01F8               	clrf	marquee_update@g
  2345  044D                     l3549:	
  2346  044D  01F9               	clrf	marquee_update@b
  2347  044E  2C6D               	goto	l3581
  2348  044F                     l3551:	
  2349  044F  30FF               	movlw	255
  2350  0450  01F7               	clrf	marquee_update@r
  2351  0451  2C59               	goto	L2
  2352  0452                     l3557:	
  2353  0452  01F7               	clrf	marquee_update@r
  2354  0453                     L3:	
  2355  0453  01F8               	clrf	marquee_update@g
  2356  0454                     l3559:	
  2357  0454  30FF               	movlw	255
  2358  0455  00F9               	movwf	marquee_update@b
  2359  0456  2C6D               	goto	l3581
  2360  0457                     l3561:	
  2361  0457  30FF               	movlw	255
  2362  0458  00F7               	movwf	marquee_update@r
  2363  0459                     L2:	
  2364  0459  00F8               	movwf	marquee_update@g
  2365  045A  2C4D               	goto	l3549
  2366  045B                     l3565:	
  2367  045B  30FF               	movlw	255
  2368  045C  00F7               	movwf	marquee_update@r
  2369  045D  2C53               	goto	L3
  2370  045E                     l3571:	
  2371  045E  30FF               	movlw	255
  2372  045F  01F7               	clrf	marquee_update@r
  2373  0460  00F8               	movwf	marquee_update@g
  2374  0461  2C54               	goto	l3559
  2375  0462                     l3579:	
  2376  0462  0842               	movf	marquee_update@color_index,w
  2377                           
  2378                           ; Switch size 1, requested type "space"
  2379                           ; Number of cases is 6, Range of values is 0 to 5
  2380                           ; switch strategies available:
  2381                           ; Name         Instructions Cycles
  2382                           ; direct_byte           12     6 (fixed)
  2383                           ; simple_byte           19    10 (average)
  2384                           ; jumptable            260     6 (fixed)
  2385                           ;	Chosen strategy is direct_byte
  2386  0463  0084               	movwf	4
  2387  0464  3006               	movlw	6
  2388  0465  0204               	subwf	4,w
  2389  0466  1803               	skipnc
  2390  0467  2C6D               	goto	l3581
  2391  0468  3000               	movlw	high S3941
  2392  0469  008A               	movwf	10
  2393  046A  3029               	movlw	low S3941
  2394  046B  0704               	addwf	4,w
  2395  046C  0082               	movwf	2
  2396  046D                     l3581:	
  2397                           
  2398                           ;effects.c: 336: for (unsigned char i = 0; i < 8; i++) {
  2399  046D  01FB               	clrf	marquee_update@i_415
  2400                           
  2401                           ;effects.c: 337: unsigned char pos = (marquee_pos + i) % 24;
  2402  046E  0844               	movf	_marquee_pos,w
  2403  046F                     L4:	
  2404  046F  00F2               	movwf	___awmod@dividend
  2405  0470  01F3               	clrf	___awmod@dividend+1
  2406  0471  087B               	movf	marquee_update@i_415,w
  2407  0472  26FB               	fcall	PL2	;call to abstracted procedure
  2408  0473  228D               	fcall	___awmod
  2409  0474  0870               	movf	?___awmod,w
  2410  0475  00FA               	movwf	marquee_update@pos
  2411                           
  2412                           ;effects.c: 338: leds[pos].r = r;
  2413  0476  077A               	addwf	marquee_update@pos,w
  2414  0477  077A               	addwf	marquee_update@pos,w
  2415  0478  3EA0               	addlw	(low (_leds| 0))& (0+255)
  2416  0479  0084               	movwf	4
  2417  047A  0877               	movf	marquee_update@r,w
  2418  047B  1383               	bcf	3,7	;select IRP bank1
  2419  047C  0080               	movwf	0
  2420                           
  2421                           ;effects.c: 339: leds[pos].g = g;
  2422  047D  087A               	movf	marquee_update@pos,w
  2423  047E  077A               	addwf	marquee_update@pos,w
  2424  047F  077A               	addwf	marquee_update@pos,w
  2425  0480  3EA1               	addlw	(low ((_leds| 0+1)))& (0+255)
  2426  0481  0084               	movwf	4
  2427  0482  0878               	movf	marquee_update@g,w
  2428  0483  0080               	movwf	0
  2429                           
  2430                           ;effects.c: 340: leds[pos].b = b;
  2431  0484  087A               	movf	marquee_update@pos,w
  2432  0485  077A               	addwf	marquee_update@pos,w
  2433  0486  077A               	addwf	marquee_update@pos,w
  2434  0487  3EA2               	addlw	(low ((_leds| 0+2)))& (0+255)
  2435  0488  0084               	movwf	4
  2436  0489  0879               	movf	marquee_update@b,w
  2437  048A  0080               	movwf	0
  2438  048B  3008               	movlw	8
  2439  048C  0AFB               	incf	marquee_update@i_415,f
  2440  048D  027B               	subwf	marquee_update@i_415,w
  2441                           
  2442                           ;effects.c: 341: }
  2443                           ;effects.c: 344: unsigned char old_pos = marquee_pos;
  2444  048E  0844               	movf	_marquee_pos,w
  2445  048F  1C03               	skipc
  2446  0490  2C6F               	goto	L4
  2447  0491  00F6               	movwf	marquee_update@old_pos
  2448                           
  2449                           ;effects.c: 345: marquee_pos = (marquee_pos + 1) % 24;
  2450  0492  25A1               	fcall	PL14	;call to abstracted procedure
  2451  0493  228D               	fcall	___awmod
  2452  0494  0870               	movf	?___awmod,w
  2453  0495  00C4               	movwf	_marquee_pos
  2454                           
  2455                           ;effects.c: 348: if (marquee_pos < old_pos) {
  2456  0496  0876               	movf	marquee_update@old_pos,w
  2457  0497  0244               	subwf	_marquee_pos,w
  2458  0498  1803               	skipnc
  2459  0499  0008               	return
  2460                           
  2461                           ;effects.c: 349: color_index = (color_index + 1) % 6;
  2462  049A  0842               	movf	marquee_update@color_index,w
  2463  049B  25AA               	fcall	PL18	;call to abstracted procedure
  2464  049C  228D               	fcall	___awmod
  2465  049D  0870               	movf	?___awmod,w
  2466  049E  00C2               	movwf	marquee_update@color_index
  2467  049F  0008               	return
  2468  04A0                     __end_of_marquee_update:	
  2469                           
  2470                           	psect	swtext1
  2471  0029                     __pswtext1:	
  2472  0029                     S3941:	
  2473  0029  2C4A               	ljmp	l3545
  2474  002A  2C4F               	ljmp	l3551
  2475  002B  2C52               	ljmp	l3557
  2476  002C  2C57               	ljmp	l3561
  2477  002D  2C5B               	ljmp	l3565
  2478  002E  2C5E               	ljmp	l3571
  2479                           
  2480                           	psect	text14
  2481  064F                     __ptext14:	
  2482 ;; *************** function _expand_update *****************
  2483 ;; Defined at:
  2484 ;;		line 241 in file "H:\8bit-RGB\effects.c"
  2485 ;; Parameters:    Size  Location     Type
  2486 ;;		None
  2487 ;; Auto vars:     Size  Location     Type
  2488 ;;  i               1   13[COMMON] unsigned char 
  2489 ;;  right           1   12[COMMON] unsigned char 
  2490 ;;  left            1   11[COMMON] unsigned char 
  2491 ;;  right           1   10[COMMON] unsigned char 
  2492 ;;  left            1    9[COMMON] unsigned char 
  2493 ;; Return value:  Size  Location     Type
  2494 ;;                  1    wreg      void 
  2495 ;; Registers used:
  2496 ;;		wreg, fsr0l, fsr0h, status,2, status,0, pclath, cstack
  2497 ;; Tracked objects:
  2498 ;;		On entry : 100/0
  2499 ;;		On exit  : 100/0
  2500 ;;		Unchanged: 0/0
  2501 ;; Data sizes:     COMMON   BANK0   BANK1
  2502 ;;      Params:         0       0       0
  2503 ;;      Locals:         5       0       0
  2504 ;;      Temps:          0       0       0
  2505 ;;      Totals:         5       0       0
  2506 ;;Total ram usage:        5 bytes
  2507 ;; Hardware stack levels used:    1
  2508 ;; Hardware stack levels required when called:    2
  2509 ;; This function calls:
  2510 ;;		___awmod
  2511 ;;		_random_value
  2512 ;; This function is called by:
  2513 ;;		_effects_update
  2514 ;; This function uses a non-reentrant model
  2515 ;;
  2516                           
  2517                           
  2518                           ;psect for function _expand_update
  2519  064F                     _expand_update:	
  2520                           
  2521                           ;effects.c: 242: static unsigned char counter = 0;
  2522                           ;effects.c: 243: counter++;
  2523                           
  2524                           ;incstack = 0
  2525                           ; Regs used in _expand_update: [wreg-fsr0h+status,2+status,0+pclath+cstack]
  2526  064F  0AC5               	incf	expand_update@counter,f
  2527                           
  2528                           ;effects.c: 244: if (counter < 1) return;
  2529  0650  0845               	movf	expand_update@counter,w
  2530  0651  1903               	btfsc	3,2
  2531  0652  0008               	return
  2532  0653  300C               	movlw	12
  2533                           
  2534                           ;effects.c: 245: counter = 0;
  2535  0654  01C5               	clrf	expand_update@counter
  2536                           
  2537                           ;effects.c: 247: if (expand_size >= 24 / 2) {
  2538  0655  0248               	subwf	_expand_size,w
  2539  0656  1C03               	skipc
  2540  0657  2E5B               	goto	l3455
  2541                           
  2542                           ;effects.c: 248: expand_dir = -1;
  2543  0658  01E1               	clrf	_expand_dir
  2544  0659  03E1               	decf	_expand_dir,f
  2545                           
  2546                           ;effects.c: 249: } else if (expand_size == 0 && expand_dir < 0) {
  2547  065A  2E96               	goto	l3489
  2548  065B                     l3455:	
  2549  065B  0848               	movf	_expand_size,w
  2550  065C  1903               	btfsc	3,2
  2551  065D  1FE1               	btfss	_expand_dir,7
  2552  065E  2E96               	goto	l3489
  2553  065F  3061               	movlw	97
  2554                           
  2555                           ;effects.c: 250: expand_dir = 1;
  2556  0660  01E1               	clrf	_expand_dir
  2557  0661  0AE1               	incf	_expand_dir,f
  2558                           
  2559                           ;effects.c: 251: expand_seed += 97;
  2560  0662  07DF               	addwf	_expand_seed,f
  2561                           
  2562                           ;effects.c: 252: expand_r = random_value(expand_seed);
  2563  0663  085F               	movf	_expand_seed,w
  2564  0664  2145               	fcall	_random_value
  2565  0665  00E0               	movwf	_expand_r
  2566                           
  2567                           ;effects.c: 253: expand_g = random_value(expand_seed + 67);
  2568  0666  085F               	movf	_expand_seed,w
  2569  0667  3E43               	addlw	67
  2570  0668  2145               	fcall	_random_value
  2571  0669  00C7               	movwf	_expand_g
  2572                           
  2573                           ;effects.c: 254: expand_b = random_value(expand_seed + 133);
  2574  066A  085F               	movf	_expand_seed,w
  2575  066B  3E85               	addlw	133
  2576  066C  2145               	fcall	_random_value
  2577  066D  00C6               	movwf	_expand_b
  2578                           
  2579                           ;effects.c: 255: if (expand_r < 100 && expand_g < 100 && expand_b < 100) {
  2580  066E  3064               	movlw	100
  2581  066F  0260               	subwf	_expand_r,w
  2582  0670  1803               	skipnc
  2583  0671  2E7C               	goto	l3477
  2584  0672  3064               	movlw	100
  2585  0673  0247               	subwf	_expand_g,w
  2586  0674  1803               	skipnc
  2587  0675  2E7C               	goto	l3477
  2588  0676  3064               	movlw	100
  2589  0677  0246               	subwf	_expand_b,w
  2590  0678  1803               	skipnc
  2591  0679  2E7C               	goto	l3477
  2592                           
  2593                           ;effects.c: 256: expand_r = 200;
  2594  067A  30C8               	movlw	200
  2595  067B  00E0               	movwf	_expand_r
  2596  067C                     l3477:	
  2597                           
  2598                           ;effects.c: 257: }
  2599                           ;effects.c: 258: for (unsigned char i = 0; i < 24; i++) {
  2600  067C  01FD               	clrf	expand_update@i
  2601  067D                     l3483:	
  2602                           
  2603                           ;effects.c: 259: leds[i].r = 0;
  2604  067D  087D               	movf	expand_update@i,w
  2605  067E  077D               	addwf	expand_update@i,w
  2606  067F  077D               	addwf	expand_update@i,w
  2607  0680  3EA0               	addlw	(low (_leds| 0))& (0+255)
  2608  0681  0084               	movwf	4
  2609  0682  1383               	bcf	3,7	;select IRP bank1
  2610  0683  0180               	clrf	0
  2611                           
  2612                           ;effects.c: 260: leds[i].g = 0;
  2613  0684  087D               	movf	expand_update@i,w
  2614  0685  077D               	addwf	expand_update@i,w
  2615  0686  077D               	addwf	expand_update@i,w
  2616  0687  3EA1               	addlw	(low ((_leds| 0+1)))& (0+255)
  2617  0688  0084               	movwf	4
  2618  0689  0180               	clrf	0
  2619                           
  2620                           ;effects.c: 261: leds[i].b = 0;
  2621  068A  087D               	movf	expand_update@i,w
  2622  068B  077D               	addwf	expand_update@i,w
  2623  068C  077D               	addwf	expand_update@i,w
  2624  068D  3EA2               	addlw	(low ((_leds| 0+2)))& (0+255)
  2625  068E  0084               	movwf	4
  2626  068F  3018               	movlw	24
  2627  0690  0180               	clrf	0
  2628  0691  0AFD               	incf	expand_update@i,f
  2629  0692  027D               	subwf	expand_update@i,w
  2630  0693  1803               	btfsc	3,0
  2631  0694  0008               	return
  2632  0695  2E7D               	goto	l3483
  2633  0696                     l3489:	
  2634                           
  2635                           ;effects.c: 264: }
  2636                           ;effects.c: 266: if (expand_dir > 0) {
  2637  0696  0861               	movf	_expand_dir,w
  2638  0697  3A80               	xorlw	128
  2639  0698  3E7F               	addlw	-129
  2640                           
  2641                           ;effects.c: 267: unsigned char left = (12 - expand_size + 24) % 24;
  2642  0699  3024               	movlw	36
  2643  069A  00F2               	movwf	___awmod@dividend
  2644  069B  01F3               	clrf	___awmod@dividend+1
  2645  069C  0848               	movf	_expand_size,w
  2646  069D  1C03               	skipc
  2647  069E  2ED5               	goto	L5
  2648  069F  270D               	fcall	PL24	;call to abstracted procedure
  2649  06A0  228D               	fcall	___awmod
  2650  06A1  0870               	movf	?___awmod,w
  2651  06A2  00F9               	movwf	expand_update@left
  2652                           
  2653                           ;effects.c: 268: unsigned char right = (12 + expand_size) % 24;
  2654  06A3  2702               	fcall	PL10	;call to abstracted procedure
  2655  06A4  26FB               	fcall	PL2	;call to abstracted procedure
  2656  06A5  228D               	fcall	___awmod
  2657  06A6  0870               	movf	?___awmod,w
  2658  06A7  00FA               	movwf	expand_update@right
  2659                           
  2660                           ;effects.c: 269: leds[left].r = expand_r;
  2661  06A8  0879               	movf	expand_update@left,w
  2662  06A9  0779               	addwf	expand_update@left,w
  2663  06AA  0779               	addwf	expand_update@left,w
  2664  06AB  3EA0               	addlw	(low (_leds| 0))& (0+255)
  2665  06AC  0084               	movwf	4
  2666  06AD  0860               	movf	_expand_r,w
  2667  06AE  1383               	bcf	3,7	;select IRP bank1
  2668  06AF  0080               	movwf	0
  2669                           
  2670                           ;effects.c: 270: leds[left].g = expand_g;
  2671  06B0  0879               	movf	expand_update@left,w
  2672  06B1  0779               	addwf	expand_update@left,w
  2673  06B2  0779               	addwf	expand_update@left,w
  2674  06B3  3EA1               	addlw	(low ((_leds| 0+1)))& (0+255)
  2675  06B4  0084               	movwf	4
  2676  06B5  0847               	movf	_expand_g,w
  2677  06B6  0080               	movwf	0
  2678                           
  2679                           ;effects.c: 271: leds[left].b = expand_b;
  2680  06B7  0879               	movf	expand_update@left,w
  2681  06B8  0779               	addwf	expand_update@left,w
  2682  06B9  0779               	addwf	expand_update@left,w
  2683  06BA  3EA2               	addlw	(low ((_leds| 0+2)))& (0+255)
  2684  06BB  0084               	movwf	4
  2685  06BC  0846               	movf	_expand_b,w
  2686  06BD  0080               	movwf	0
  2687                           
  2688                           ;effects.c: 272: leds[right].r = expand_r;
  2689  06BE  087A               	movf	expand_update@right,w
  2690  06BF  077A               	addwf	expand_update@right,w
  2691  06C0  077A               	addwf	expand_update@right,w
  2692  06C1  3EA0               	addlw	(low (_leds| 0))& (0+255)
  2693  06C2  0084               	movwf	4
  2694  06C3  0860               	movf	_expand_r,w
  2695  06C4  0080               	movwf	0
  2696                           
  2697                           ;effects.c: 273: leds[right].g = expand_g;
  2698  06C5  087A               	movf	expand_update@right,w
  2699  06C6  077A               	addwf	expand_update@right,w
  2700  06C7  077A               	addwf	expand_update@right,w
  2701  06C8  3EA1               	addlw	(low ((_leds| 0+1)))& (0+255)
  2702  06C9  0084               	movwf	4
  2703  06CA  0847               	movf	_expand_g,w
  2704  06CB  0080               	movwf	0
  2705                           
  2706                           ;effects.c: 274: leds[right].b = expand_b;
  2707  06CC  087A               	movf	expand_update@right,w
  2708  06CD  077A               	addwf	expand_update@right,w
  2709  06CE  077A               	addwf	expand_update@right,w
  2710  06CF  3EA2               	addlw	(low ((_leds| 0+2)))& (0+255)
  2711  06D0  0084               	movwf	4
  2712  06D1  0846               	movf	_expand_b,w
  2713  06D2  0080               	movwf	0
  2714                           
  2715                           ;effects.c: 275: expand_size++;
  2716  06D3  0AC8               	incf	_expand_size,f
  2717                           
  2718                           ;effects.c: 276: } else {
  2719  06D4  0008               	return
  2720  06D5                     L5:	
  2721                           ;effects.c: 277: unsigned char left = (12 - expand_size + 24) % 24;
  2722                           
  2723  06D5  270D               	fcall	PL24	;call to abstracted procedure
  2724  06D6  228D               	fcall	___awmod
  2725  06D7  0870               	movf	?___awmod,w
  2726  06D8  00FB               	movwf	expand_update@left_402
  2727                           
  2728                           ;effects.c: 278: unsigned char right = (12 + expand_size) % 24;
  2729  06D9  2702               	fcall	PL10	;call to abstracted procedure
  2730  06DA  26FB               	fcall	PL2	;call to abstracted procedure
  2731  06DB  228D               	fcall	___awmod
  2732  06DC  0870               	movf	?___awmod,w
  2733  06DD  00FC               	movwf	expand_update@right_403
  2734                           
  2735                           ;effects.c: 279: leds[left].r = 0;
  2736  06DE  087B               	movf	expand_update@left_402,w
  2737  06DF  077B               	addwf	expand_update@left_402,w
  2738  06E0  077B               	addwf	expand_update@left_402,w
  2739  06E1  3EA0               	addlw	(low (_leds| 0))& (0+255)
  2740  06E2  0084               	movwf	4
  2741  06E3  1383               	bcf	3,7	;select IRP bank1
  2742  06E4  0180               	clrf	0
  2743                           
  2744                           ;effects.c: 280: leds[left].g = 0;
  2745  06E5  087B               	movf	expand_update@left_402,w
  2746  06E6  077B               	addwf	expand_update@left_402,w
  2747  06E7  077B               	addwf	expand_update@left_402,w
  2748  06E8  3EA1               	addlw	(low ((_leds| 0+1)))& (0+255)
  2749  06E9  0084               	movwf	4
  2750  06EA  0180               	clrf	0
  2751                           
  2752                           ;effects.c: 281: leds[left].b = 0;
  2753  06EB  087B               	movf	expand_update@left_402,w
  2754  06EC  077B               	addwf	expand_update@left_402,w
  2755  06ED  077B               	addwf	expand_update@left_402,w
  2756  06EE  3EA2               	addlw	(low ((_leds| 0+2)))& (0+255)
  2757                           
  2758                           ;effects.c: 282: leds[right].r = 0;
  2759  06EF  2707               	fcall	PL20	;call to abstracted procedure
  2760  06F0  3EA0               	addlw	(low (_leds| 0))& (0+255)
  2761                           
  2762                           ;effects.c: 283: leds[right].g = 0;
  2763  06F1  2707               	fcall	PL20	;call to abstracted procedure
  2764  06F2  3EA1               	addlw	(low ((_leds| 0+1)))& (0+255)
  2765                           
  2766                           ;effects.c: 284: leds[right].b = 0;
  2767  06F3  2707               	fcall	PL20	;call to abstracted procedure
  2768  06F4  3EA2               	addlw	(low ((_leds| 0+2)))& (0+255)
  2769  06F5  0084               	movwf	4
  2770  06F6  0180               	clrf	0
  2771                           
  2772                           ;effects.c: 285: if (expand_size > 0) expand_size--;
  2773  06F7  0848               	movf	_expand_size,w
  2774  06F8  1D03               	btfss	3,2
  2775  06F9  03C8               	decf	_expand_size,f
  2776  06FA  0008               	return
  2777  06FB                     __end_of_expand_update:	
  2778  06FB                     PL2:	
  2779  06FB  07F2               	addwf	___awmod@dividend,f
  2780  06FC  1803               	skipnc
  2781  06FD  0AF3               	incf	___awmod@dividend+1,f
  2782  06FE  3018               	movlw	24
  2783  06FF  00F0               	movwf	___awmod@divisor
  2784  0700  01F1               	clrf	___awmod@divisor+1
  2785  0701  0008               	return
  2786  0702                     __end_ofPL2:	
  2787  0702                     PL10:	
  2788  0702  0848               	movf	_expand_size,w
  2789  0703  00F2               	movwf	___awmod@dividend
  2790  0704  300C               	movlw	12
  2791  0705  01F3               	clrf	___awmod@dividend+1
  2792  0706  0008               	return
  2793  0707                     __end_ofPL10:	
  2794  0707                     PL20:	
  2795  0707  0084               	movwf	4
  2796  0708  0180               	clrf	0
  2797  0709  087C               	movf	expand_update@right_403,w
  2798  070A  077C               	addwf	expand_update@right_403,w
  2799  070B  077C               	addwf	expand_update@right_403,w
  2800  070C  0008               	return
  2801  070D                     __end_ofPL20:	
  2802  070D                     PL24:	
  2803  070D  02F2               	subwf	___awmod@dividend,f
  2804  070E  1C03               	skipc
  2805  070F  03F3               	decf	___awmod@dividend+1,f
  2806  0710  3018               	movlw	24
  2807  0711  00F0               	movwf	___awmod@divisor
  2808  0712  01F1               	clrf	___awmod@divisor+1
  2809  0713  0008               	return
  2810  0714                     __end_ofPL24:	
  2811                           
  2812                           	psect	text15
  2813  0528                     __ptext15:	
  2814 ;; *************** function _chase_update *****************
  2815 ;; Defined at:
  2816 ;;		line 172 in file "H:\8bit-RGB\effects.c"
  2817 ;; Parameters:    Size  Location     Type
  2818 ;;		None
  2819 ;; Auto vars:     Size  Location     Type
  2820 ;;  pos             1   10[COMMON] unsigned char 
  2821 ;;  i               1   11[COMMON] unsigned char 
  2822 ;;  i               1   12[COMMON] unsigned char 
  2823 ;;  b               1    9[COMMON] unsigned char 
  2824 ;;  g               1    8[COMMON] unsigned char 
  2825 ;;  r               1    7[COMMON] unsigned char 
  2826 ;;  old_pos         1    6[COMMON] unsigned char 
  2827 ;; Return value:  Size  Location     Type
  2828 ;;                  1    wreg      void 
  2829 ;; Registers used:
  2830 ;;		wreg, fsr0l, fsr0h, status,2, status,0, pclath, cstack
  2831 ;; Tracked objects:
  2832 ;;		On entry : 100/0
  2833 ;;		On exit  : 100/0
  2834 ;;		Unchanged: 0/0
  2835 ;; Data sizes:     COMMON   BANK0   BANK1
  2836 ;;      Params:         0       0       0
  2837 ;;      Locals:         7       0       0
  2838 ;;      Temps:          0       0       0
  2839 ;;      Totals:         7       0       0
  2840 ;;Total ram usage:        7 bytes
  2841 ;; Hardware stack levels used:    1
  2842 ;; Hardware stack levels required when called:    1
  2843 ;; This function calls:
  2844 ;;		___awmod
  2845 ;; This function is called by:
  2846 ;;		_effects_update
  2847 ;; This function uses a non-reentrant model
  2848 ;;
  2849                           
  2850                           
  2851                           ;psect for function _chase_update
  2852  0528                     _chase_update:	
  2853  0528  3014               	movlw	20
  2854                           
  2855                           ;effects.c: 174: static unsigned char counter = 0;
  2856                           ;effects.c: 175: counter++;
  2857                           
  2858                           ;incstack = 0
  2859                           ; Regs used in _chase_update: [wreg-fsr0h+status,2+status,0+pclath+cstack]
  2860  0529  0AC9               	incf	chase_update@counter,f
  2861                           
  2862                           ;effects.c: 176: if (counter < 2 * 10) return;
  2863  052A  0249               	subwf	chase_update@counter,w
  2864  052B  1C03               	btfss	3,0
  2865  052C  0008               	return
  2866                           
  2867                           ;effects.c: 177: counter = 0;
  2868  052D  01C9               	clrf	chase_update@counter
  2869                           
  2870                           ;effects.c: 180: for (unsigned char i = 0; i < 24; i++) {
  2871  052E  01FC               	clrf	chase_update@i
  2872  052F                     l3365:	
  2873                           
  2874                           ;effects.c: 181: leds[i].r = 0;
  2875  052F  087C               	movf	chase_update@i,w
  2876  0530  077C               	addwf	chase_update@i,w
  2877  0531  077C               	addwf	chase_update@i,w
  2878  0532  3EA0               	addlw	(low (_leds| 0))& (0+255)
  2879  0533  0084               	movwf	4
  2880  0534  1383               	bcf	3,7	;select IRP bank1
  2881  0535  0180               	clrf	0
  2882                           
  2883                           ;effects.c: 182: leds[i].g = 0;
  2884  0536  087C               	movf	chase_update@i,w
  2885  0537  077C               	addwf	chase_update@i,w
  2886  0538  077C               	addwf	chase_update@i,w
  2887  0539  3EA1               	addlw	(low ((_leds| 0+1)))& (0+255)
  2888  053A  0084               	movwf	4
  2889  053B  0180               	clrf	0
  2890                           
  2891                           ;effects.c: 183: leds[i].b = 0;
  2892  053C  087C               	movf	chase_update@i,w
  2893  053D  077C               	addwf	chase_update@i,w
  2894  053E  077C               	addwf	chase_update@i,w
  2895  053F  3EA2               	addlw	(low ((_leds| 0+2)))& (0+255)
  2896  0540  0084               	movwf	4
  2897  0541  3018               	movlw	24
  2898  0542  0180               	clrf	0
  2899  0543  0AFC               	incf	chase_update@i,f
  2900  0544  027C               	subwf	chase_update@i,w
  2901  0545  1C03               	skipc
  2902  0546  2D2F               	goto	l3365
  2903                           
  2904                           ;effects.c: 184: }
  2905                           ;effects.c: 187: unsigned char r = 0, g = 0, b = 0;
  2906  0547  01F7               	clrf	chase_update@r
  2907  0548  01F8               	clrf	chase_update@g
  2908  0549  01F9               	clrf	chase_update@b
  2909                           
  2910                           ;effects.c: 188: switch (chase_color_idx) {
  2911  054A  2D63               	goto	l3407
  2912  054B                     l3373:	
  2913  054B  30FF               	movlw	255
  2914  054C  00F7               	movwf	chase_update@r
  2915  054D  01F8               	clrf	chase_update@g
  2916  054E                     l3377:	
  2917  054E  01F9               	clrf	chase_update@b
  2918  054F  2D6E               	goto	l3409
  2919  0550                     l3379:	
  2920  0550  30FF               	movlw	255
  2921  0551  01F7               	clrf	chase_update@r
  2922  0552  2D5A               	goto	L6
  2923  0553                     l3385:	
  2924  0553  01F7               	clrf	chase_update@r
  2925  0554                     L7:	
  2926  0554  01F8               	clrf	chase_update@g
  2927  0555                     l3387:	
  2928  0555  30FF               	movlw	255
  2929  0556  00F9               	movwf	chase_update@b
  2930  0557  2D6E               	goto	l3409
  2931  0558                     l3389:	
  2932  0558  30FF               	movlw	255
  2933  0559  00F7               	movwf	chase_update@r
  2934  055A                     L6:	
  2935  055A  00F8               	movwf	chase_update@g
  2936  055B  2D4E               	goto	l3377
  2937  055C                     l3393:	
  2938  055C  30FF               	movlw	255
  2939  055D  00F7               	movwf	chase_update@r
  2940  055E  2D54               	goto	L7
  2941  055F                     l3399:	
  2942  055F  30FF               	movlw	255
  2943  0560  01F7               	clrf	chase_update@r
  2944  0561  00F8               	movwf	chase_update@g
  2945  0562  2D55               	goto	l3387
  2946  0563                     l3407:	
  2947  0563  084A               	movf	_chase_color_idx,w
  2948                           
  2949                           ; Switch size 1, requested type "space"
  2950                           ; Number of cases is 6, Range of values is 0 to 5
  2951                           ; switch strategies available:
  2952                           ; Name         Instructions Cycles
  2953                           ; direct_byte           12     6 (fixed)
  2954                           ; simple_byte           19    10 (average)
  2955                           ; jumptable            260     6 (fixed)
  2956                           ;	Chosen strategy is direct_byte
  2957  0564  0084               	movwf	4
  2958  0565  3006               	movlw	6
  2959  0566  0204               	subwf	4,w
  2960  0567  1803               	skipnc
  2961  0568  2D6E               	goto	l3409
  2962  0569  3000               	movlw	high S3943
  2963  056A  008A               	movwf	10
  2964  056B  302F               	movlw	low S3943
  2965  056C  0704               	addwf	4,w
  2966  056D  0082               	movwf	2
  2967  056E                     l3409:	
  2968                           
  2969                           ;effects.c: 198: for (unsigned char i = 0; i < 3; i++) {
  2970  056E  01FB               	clrf	chase_update@i_382
  2971                           
  2972                           ;effects.c: 199: unsigned char pos = (chase_pos + i) % 24;
  2973  056F  084B               	movf	_chase_pos,w
  2974  0570                     L8:	
  2975  0570  00F2               	movwf	___awmod@dividend
  2976  0571  01F3               	clrf	___awmod@dividend+1
  2977  0572  087B               	movf	chase_update@i_382,w
  2978  0573  26FB               	fcall	PL2	;call to abstracted procedure
  2979  0574  228D               	fcall	___awmod
  2980  0575  0870               	movf	?___awmod,w
  2981  0576  00FA               	movwf	chase_update@pos
  2982                           
  2983                           ;effects.c: 200: leds[pos].r = r;
  2984  0577  077A               	addwf	chase_update@pos,w
  2985  0578  077A               	addwf	chase_update@pos,w
  2986  0579  3EA0               	addlw	(low (_leds| 0))& (0+255)
  2987  057A  0084               	movwf	4
  2988  057B  0877               	movf	chase_update@r,w
  2989  057C  1383               	bcf	3,7	;select IRP bank1
  2990  057D  0080               	movwf	0
  2991                           
  2992                           ;effects.c: 201: leds[pos].g = g;
  2993  057E  087A               	movf	chase_update@pos,w
  2994  057F  077A               	addwf	chase_update@pos,w
  2995  0580  077A               	addwf	chase_update@pos,w
  2996  0581  3EA1               	addlw	(low ((_leds| 0+1)))& (0+255)
  2997  0582  0084               	movwf	4
  2998  0583  0878               	movf	chase_update@g,w
  2999  0584  0080               	movwf	0
  3000                           
  3001                           ;effects.c: 202: leds[pos].b = b;
  3002  0585  087A               	movf	chase_update@pos,w
  3003  0586  077A               	addwf	chase_update@pos,w
  3004  0587  077A               	addwf	chase_update@pos,w
  3005  0588  3EA2               	addlw	(low ((_leds| 0+2)))& (0+255)
  3006  0589  0084               	movwf	4
  3007  058A  0879               	movf	chase_update@b,w
  3008  058B  0080               	movwf	0
  3009  058C  3003               	movlw	3
  3010  058D  0AFB               	incf	chase_update@i_382,f
  3011  058E  027B               	subwf	chase_update@i_382,w
  3012                           
  3013                           ;effects.c: 203: }
  3014                           ;effects.c: 206: unsigned char old_pos = chase_pos;
  3015  058F  084B               	movf	_chase_pos,w
  3016  0590  1C03               	skipc
  3017  0591  2D70               	goto	L8
  3018  0592  00F6               	movwf	chase_update@old_pos
  3019                           
  3020                           ;effects.c: 207: chase_pos = (chase_pos + 1) % 24;
  3021  0593  25A1               	fcall	PL14	;call to abstracted procedure
  3022  0594  228D               	fcall	___awmod
  3023  0595  0870               	movf	?___awmod,w
  3024  0596  00CB               	movwf	_chase_pos
  3025                           
  3026                           ;effects.c: 210: if (chase_pos < old_pos) {
  3027  0597  0876               	movf	chase_update@old_pos,w
  3028  0598  024B               	subwf	_chase_pos,w
  3029  0599  1803               	skipnc
  3030  059A  0008               	return
  3031                           
  3032                           ;effects.c: 211: chase_color_idx = (chase_color_idx + 1) % 6;
  3033  059B  084A               	movf	_chase_color_idx,w
  3034  059C  25AA               	fcall	PL18	;call to abstracted procedure
  3035  059D  228D               	fcall	___awmod
  3036  059E  0870               	movf	?___awmod,w
  3037  059F  00CA               	movwf	_chase_color_idx
  3038  05A0  0008               	return
  3039  05A1                     __end_of_chase_update:	
  3040  05A1                     PL14:	
  3041  05A1  00F2               	movwf	___awmod@dividend
  3042  05A2  01F3               	clrf	___awmod@dividend+1
  3043  05A3  0AF2               	incf	___awmod@dividend,f
  3044  05A4  1903               	skipnz
  3045  05A5  0AF3               	incf	___awmod@dividend+1,f
  3046  05A6  3018               	movlw	24
  3047  05A7  00F0               	movwf	___awmod@divisor
  3048  05A8  01F1               	clrf	___awmod@divisor+1
  3049  05A9  0008               	return
  3050  05AA                     __end_ofPL14:	
  3051  05AA                     PL18:	
  3052  05AA  00F2               	movwf	___awmod@dividend
  3053  05AB  01F3               	clrf	___awmod@dividend+1
  3054  05AC  0AF2               	incf	___awmod@dividend,f
  3055  05AD  1903               	skipnz
  3056  05AE  0AF3               	incf	___awmod@dividend+1,f
  3057  05AF  3006               	movlw	6
  3058  05B0  00F0               	movwf	___awmod@divisor
  3059  05B1  01F1               	clrf	___awmod@divisor+1
  3060  05B2  0008               	return
  3061  05B3                     __end_ofPL18:	
  3062                           
  3063                           	psect	swtext2
  3064  002F                     __pswtext2:	
  3065  002F                     S3943:	
  3066  002F  2D4B               	ljmp	l3373
  3067  0030  2D50               	ljmp	l3379
  3068  0031  2D53               	ljmp	l3385
  3069  0032  2D58               	ljmp	l3389
  3070  0033  2D5C               	ljmp	l3393
  3071  0034  2D5F               	ljmp	l3399
  3072                           
  3073                           	psect	text16
  3074  04A0                     __ptext16:	
  3075 ;; *************** function _breath_update *****************
  3076 ;; Defined at:
  3077 ;;		line 23 in file "H:\8bit-RGB\effects.c"
  3078 ;; Parameters:    Size  Location     Type
  3079 ;;		None
  3080 ;; Auto vars:     Size  Location     Type
  3081 ;;  i               1   11[COMMON] unsigned char 
  3082 ;;  new_val         1   10[COMMON] unsigned char 
  3083 ;;  old_val         1    9[COMMON] unsigned char 
  3084 ;;  b               1    8[COMMON] unsigned char 
  3085 ;;  g               1    7[COMMON] unsigned char 
  3086 ;;  r               1    6[COMMON] unsigned char 
  3087 ;; Return value:  Size  Location     Type
  3088 ;;                  1    wreg      void 
  3089 ;; Registers used:
  3090 ;;		wreg, fsr0l, fsr0h, status,2, status,0, pclath, cstack
  3091 ;; Tracked objects:
  3092 ;;		On entry : 100/0
  3093 ;;		On exit  : 100/0
  3094 ;;		Unchanged: 0/0
  3095 ;; Data sizes:     COMMON   BANK0   BANK1
  3096 ;;      Params:         0       0       0
  3097 ;;      Locals:         6       0       0
  3098 ;;      Temps:          0       0       0
  3099 ;;      Totals:         6       0       0
  3100 ;;Total ram usage:        6 bytes
  3101 ;; Hardware stack levels used:    1
  3102 ;; Hardware stack levels required when called:    1
  3103 ;; This function calls:
  3104 ;;		___awmod
  3105 ;;		___bmul
  3106 ;; This function is called by:
  3107 ;;		_effects_update
  3108 ;; This function uses a non-reentrant model
  3109 ;;
  3110                           
  3111                           
  3112                           ;psect for function _breath_update
  3113  04A0                     _breath_update:	
  3114  04A0  300A               	movlw	10
  3115                           
  3116                           ;effects.c: 25: static unsigned char counter = 0;
  3117                           ;effects.c: 26: counter++;
  3118                           
  3119                           ;incstack = 0
  3120                           ; Regs used in _breath_update: [wreg-fsr0h+status,2+status,0+pclath+cstack]
  3121  04A1  0ACD               	incf	breath_update@counter,f
  3122                           
  3123                           ;effects.c: 27: if (counter < 10) return;
  3124  04A2  024D               	subwf	breath_update@counter,w
  3125  04A3  1C03               	btfss	3,0
  3126  04A4  0008               	return
  3127                           
  3128                           ;effects.c: 28: counter = 0;
  3129  04A5  01CD               	clrf	breath_update@counter
  3130                           
  3131                           ;effects.c: 30: unsigned char r = 0, g = 0, b = 0;
  3132  04A6  01F6               	clrf	breath_update@r
  3133  04A7  01F7               	clrf	breath_update@g
  3134  04A8  01F8               	clrf	breath_update@b
  3135                           
  3136                           ;effects.c: 33: if (breath_transition > 0) {
  3137  04A9  084E               	movf	_breath_transition,w
  3138  04AA  1903               	btfsc	3,2
  3139  04AB  2CDD               	goto	l3251
  3140  04AC  300D               	movlw	13
  3141                           
  3142                           ;effects.c: 34: breath_transition += 2;
  3143  04AD  0ACE               	incf	_breath_transition,f
  3144  04AE  0ACE               	incf	_breath_transition,f
  3145                           
  3146                           ;effects.c: 35: if (breath_transition > 12) {
  3147  04AF  024E               	subwf	_breath_transition,w
  3148  04B0  1C03               	skipc
  3149  04B1  2CC3               	goto	l3237
  3150                           
  3151                           ;effects.c: 36: breath_transition = 0;
  3152  04B2  01CE               	clrf	_breath_transition
  3153                           
  3154                           ;effects.c: 37: breath_color = (breath_color + 1) % 3;
  3155  04B3  084F               	movf	_breath_color,w
  3156  04B4  00F2               	movwf	___awmod@dividend
  3157  04B5  01F3               	clrf	___awmod@dividend+1
  3158  04B6  0AF2               	incf	___awmod@dividend,f
  3159  04B7  1903               	skipnz
  3160  04B8  0AF3               	incf	___awmod@dividend+1,f
  3161  04B9  3003               	movlw	3
  3162  04BA  00F0               	movwf	___awmod@divisor
  3163  04BB  01F1               	clrf	___awmod@divisor+1
  3164  04BC  228D               	fcall	___awmod
  3165  04BD  0870               	movf	?___awmod,w
  3166  04BE  00CF               	movwf	_breath_color
  3167                           
  3168                           ;effects.c: 38: breath_val = 25;
  3169  04BF  3019               	movlw	25
  3170  04C0  00E2               	movwf	_breath_val
  3171                           
  3172                           ;effects.c: 39: breath_dir = 1;
  3173  04C1  01E3               	clrf	_breath_dir
  3174  04C2  0AE3               	incf	_breath_dir,f
  3175  04C3                     l3237:	
  3176                           
  3177                           ;effects.c: 40: }
  3178                           ;effects.c: 43: unsigned char old_val = 25 - breath_transition;
  3179  04C3  084E               	movf	_breath_transition,w
  3180  04C4  3C19               	sublw	25
  3181  04C5  00F9               	movwf	breath_update@old_val
  3182                           
  3183                           ;effects.c: 44: unsigned char new_val = breath_transition;
  3184  04C6  084E               	movf	_breath_transition,w
  3185  04C7  00FA               	movwf	breath_update@new_val
  3186                           
  3187                           ;effects.c: 46: switch (breath_color) {
  3188  04C8  2CD5               	goto	l3249
  3189  04C9                     l3241:	
  3190  04C9  0879               	movf	breath_update@old_val,w
  3191  04CA  00F6               	movwf	breath_update@r
  3192  04CB  087A               	movf	breath_update@new_val,w
  3193  04CC  2CF9               	goto	L9
  3194  04CD                     l3243:	
  3195  04CD  0879               	movf	breath_update@old_val,w
  3196  04CE  00F7               	movwf	breath_update@g
  3197  04CF  087A               	movf	breath_update@new_val,w
  3198  04D0  2CFC               	goto	L10
  3199  04D1                     l3245:	
  3200  04D1  0879               	movf	breath_update@old_val,w
  3201  04D2  00F8               	movwf	breath_update@b
  3202  04D3  087A               	movf	breath_update@new_val,w
  3203  04D4  2CF6               	goto	L11
  3204  04D5                     l3249:	
  3205                           
  3206                           ; Switch size 1, requested type "space"
  3207                           ; Number of cases is 3, Range of values is 0 to 2
  3208                           ; switch strategies available:
  3209                           ; Name         Instructions Cycles
  3210                           ; direct_byte            9     6 (fixed)
  3211                           ; simple_byte           10     6 (average)
  3212                           ; jumptable            260     6 (fixed)
  3213                           ;	Chosen strategy is direct_byte
  3214  04D5  2523               	fcall	PL30	;call to abstracted procedure
  3215  04D6  1803               	skipnc
  3216  04D7  2D06               	goto	l3277
  3217  04D8  3000               	movlw	high S3945
  3218  04D9  008A               	movwf	10
  3219  04DA  3035               	movlw	low S3945
  3220  04DB  0704               	addwf	4,w
  3221  04DC  0082               	movwf	2
  3222  04DD                     l3251:	
  3223                           
  3224                           ;effects.c: 53: else {
  3225                           ;effects.c: 55: breath_val += breath_dir * 10;
  3226  04DD  300A               	movlw	10
  3227  04DE  00F0               	movwf	___bmul@multiplicand
  3228  04DF  0863               	movf	_breath_dir,w
  3229  04E0  20CB               	fcall	___bmul
  3230  04E1  07E2               	addwf	_breath_val,f
  3231                           
  3232                           ;effects.c: 57: if (breath_val >= 250) {
  3233  04E2  30FA               	movlw	250
  3234  04E3  0262               	subwf	_breath_val,w
  3235  04E4  1C03               	skipc
  3236  04E5  2CEB               	goto	l3259
  3237                           
  3238                           ;effects.c: 58: breath_val = 250;
  3239  04E6  30FA               	movlw	250
  3240  04E7  00E2               	movwf	_breath_val
  3241                           
  3242                           ;effects.c: 59: breath_dir = -1;
  3243  04E8  01E3               	clrf	_breath_dir
  3244  04E9  03E3               	decf	_breath_dir,f
  3245                           
  3246                           ;effects.c: 60: }
  3247  04EA  2CFE               	goto	l3275
  3248  04EB                     l3259:	
  3249                           
  3250                           ;effects.c: 61: else if (breath_val <= 25 && breath_dir < 0) {
  3251  04EB  301A               	movlw	26
  3252  04EC  0262               	subwf	_breath_val,w
  3253  04ED  1C03               	btfss	3,0
  3254  04EE  1FE3               	btfss	_breath_dir,7
  3255  04EF  2CFE               	goto	l3275
  3256  04F0  3019               	movlw	25
  3257                           
  3258                           ;effects.c: 63: breath_transition = 1;
  3259  04F1  01CE               	clrf	_breath_transition
  3260  04F2  0ACE               	incf	_breath_transition,f
  3261                           
  3262                           ;effects.c: 64: breath_val = 25;
  3263  04F3  00E2               	movwf	_breath_val
  3264  04F4  2CFE               	goto	l3275
  3265  04F5                     l3267:	
  3266  04F5  0862               	movf	_breath_val,w
  3267  04F6                     L11:	
  3268  04F6  00F6               	movwf	breath_update@r
  3269  04F7  2D06               	goto	l3277
  3270  04F8                     l3269:	
  3271  04F8  0862               	movf	_breath_val,w
  3272  04F9                     L9:	
  3273  04F9  00F7               	movwf	breath_update@g
  3274  04FA  2D06               	goto	l3277
  3275  04FB                     l3271:	
  3276  04FB  0862               	movf	_breath_val,w
  3277  04FC                     L10:	
  3278  04FC  00F8               	movwf	breath_update@b
  3279  04FD  2D06               	goto	l3277
  3280  04FE                     l3275:	
  3281                           
  3282                           ; Switch size 1, requested type "space"
  3283                           ; Number of cases is 3, Range of values is 0 to 2
  3284                           ; switch strategies available:
  3285                           ; Name         Instructions Cycles
  3286                           ; direct_byte            9     6 (fixed)
  3287                           ; simple_byte           10     6 (average)
  3288                           ; jumptable            260     6 (fixed)
  3289                           ;	Chosen strategy is direct_byte
  3290  04FE  2523               	fcall	PL30	;call to abstracted procedure
  3291  04FF  1803               	skipnc
  3292  0500  2D06               	goto	l3277
  3293  0501  3000               	movlw	high S3947
  3294  0502  008A               	movwf	10
  3295  0503  3038               	movlw	low S3947
  3296  0504  0704               	addwf	4,w
  3297  0505  0082               	movwf	2
  3298  0506                     l3277:	
  3299                           
  3300                           ;effects.c: 73: }
  3301                           ;effects.c: 75: for (unsigned char i = 0; i < 24; i++) {
  3302  0506  01FB               	clrf	breath_update@i
  3303  0507                     l3283:	
  3304                           
  3305                           ;effects.c: 76: leds[i].r = r;
  3306  0507  087B               	movf	breath_update@i,w
  3307  0508  077B               	addwf	breath_update@i,w
  3308  0509  077B               	addwf	breath_update@i,w
  3309  050A  3EA0               	addlw	(low (_leds| 0))& (0+255)
  3310  050B  0084               	movwf	4
  3311  050C  0876               	movf	breath_update@r,w
  3312  050D  1383               	bcf	3,7	;select IRP bank1
  3313  050E  0080               	movwf	0
  3314                           
  3315                           ;effects.c: 77: leds[i].g = g;
  3316  050F  087B               	movf	breath_update@i,w
  3317  0510  077B               	addwf	breath_update@i,w
  3318  0511  077B               	addwf	breath_update@i,w
  3319  0512  3EA1               	addlw	(low ((_leds| 0+1)))& (0+255)
  3320  0513  0084               	movwf	4
  3321  0514  0877               	movf	breath_update@g,w
  3322  0515  0080               	movwf	0
  3323                           
  3324                           ;effects.c: 78: leds[i].b = b;
  3325  0516  087B               	movf	breath_update@i,w
  3326  0517  077B               	addwf	breath_update@i,w
  3327  0518  077B               	addwf	breath_update@i,w
  3328  0519  3EA2               	addlw	(low ((_leds| 0+2)))& (0+255)
  3329  051A  0084               	movwf	4
  3330  051B  0878               	movf	breath_update@b,w
  3331  051C  0080               	movwf	0
  3332  051D  3018               	movlw	24
  3333  051E  0AFB               	incf	breath_update@i,f
  3334  051F  027B               	subwf	breath_update@i,w
  3335  0520  1803               	btfsc	3,0
  3336  0521  0008               	return
  3337  0522  2D07               	goto	l3283
  3338  0523                     __end_of_breath_update:	
  3339  0523                     PL30:	
  3340  0523  084F               	movf	_breath_color,w
  3341  0524  0084               	movwf	4
  3342  0525  3003               	movlw	3
  3343  0526  0204               	subwf	4,w
  3344  0527  0008               	return
  3345  0528                     __end_ofPL30:	
  3346                           
  3347                           	psect	swtext3
  3348  0035                     __pswtext3:	
  3349  0035                     S3945:	
  3350  0035  2CC9               	ljmp	l3241
  3351  0036  2CCD               	ljmp	l3243
  3352  0037  2CD1               	ljmp	l3245
  3353                           
  3354                           	psect	swtext4
  3355  0038                     __pswtext4:	
  3356  0038                     S3947:	
  3357  0038  2CF5               	ljmp	l3267
  3358  0039  2CF8               	ljmp	l3269
  3359  003A  2CFB               	ljmp	l3271
  3360                           
  3361                           	psect	text17
  3362  0714                     __ptext17:	
  3363 ;; *************** function _twinkle_update *****************
  3364 ;; Defined at:
  3365 ;;		line 110 in file "H:\8bit-RGB\effects.c"
  3366 ;; Parameters:    Size  Location     Type
  3367 ;;		None
  3368 ;; Auto vars:     Size  Location     Type
  3369 ;;  brightness      1    3[BANK0 ] unsigned char 
  3370 ;;  color           1    2[BANK0 ] unsigned char 
  3371 ;;  i               1    5[BANK0 ] unsigned char 
  3372 ;;  i               1    4[BANK0 ] unsigned char 
  3373 ;; Return value:  Size  Location     Type
  3374 ;;                  1    wreg      void 
  3375 ;; Registers used:
  3376 ;;		wreg, fsr0l, fsr0h, status,2, status,0, pclath, cstack
  3377 ;; Tracked objects:
  3378 ;;		On entry : 100/0
  3379 ;;		On exit  : 100/0
  3380 ;;		Unchanged: 0/0
  3381 ;; Data sizes:     COMMON   BANK0   BANK1
  3382 ;;      Params:         0       0       0
  3383 ;;      Locals:         0       4       0
  3384 ;;      Temps:          0       2       0
  3385 ;;      Totals:         0       6       0
  3386 ;;Total ram usage:        6 bytes
  3387 ;; Hardware stack levels used:    1
  3388 ;; Hardware stack levels required when called:    1
  3389 ;; This function calls:
  3390 ;;		___awdiv
  3391 ;;		___awmod
  3392 ;;		___bmul
  3393 ;;		___wmul
  3394 ;; This function is called by:
  3395 ;;		_effects_update
  3396 ;; This function uses a non-reentrant model
  3397 ;;
  3398                           
  3399                           
  3400                           ;psect for function _twinkle_update
  3401  0714                     _twinkle_update:	
  3402  0714  3005               	movlw	5
  3403                           
  3404                           ;effects.c: 112: twinkle_counter++;
  3405                           
  3406                           ;incstack = 0
  3407                           ; Regs used in _twinkle_update: [wreg-fsr0h+status,2+status,0+pclath+cstack]
  3408  0715  0ACC               	incf	_twinkle_counter,f
  3409                           
  3410                           ;effects.c: 113: if (twinkle_counter < 5) return;
  3411  0716  024C               	subwf	_twinkle_counter,w
  3412  0717  1C03               	btfss	3,0
  3413  0718  0008               	return
  3414                           
  3415                           ;effects.c: 114: twinkle_counter = 0;
  3416  0719  01CC               	clrf	_twinkle_counter
  3417                           
  3418                           ;effects.c: 117: for (unsigned char i = 0; i < 24; i++) {
  3419  071A  01D5               	clrf	twinkle_update@i
  3420  071B                     l3313:	
  3421                           
  3422                           ;effects.c: 118: leds[i].r = 0;
  3423  071B  0855               	movf	twinkle_update@i,w
  3424  071C  0755               	addwf	twinkle_update@i,w
  3425  071D  0755               	addwf	twinkle_update@i,w
  3426  071E  3EA0               	addlw	(low (_leds| 0))& (0+255)
  3427  071F  0084               	movwf	4
  3428  0720  1383               	bcf	3,7	;select IRP bank1
  3429  0721  0180               	clrf	0
  3430                           
  3431                           ;effects.c: 119: leds[i].g = 0;
  3432  0722  0855               	movf	twinkle_update@i,w
  3433  0723  0755               	addwf	twinkle_update@i,w
  3434  0724  0755               	addwf	twinkle_update@i,w
  3435  0725  3EA1               	addlw	(low ((_leds| 0+1)))& (0+255)
  3436  0726  0084               	movwf	4
  3437  0727  0180               	clrf	0
  3438                           
  3439                           ;effects.c: 120: leds[i].b = 0;
  3440  0728  0855               	movf	twinkle_update@i,w
  3441  0729  0755               	addwf	twinkle_update@i,w
  3442  072A  0755               	addwf	twinkle_update@i,w
  3443  072B  3EA2               	addlw	(low ((_leds| 0+2)))& (0+255)
  3444  072C  0084               	movwf	4
  3445  072D  3018               	movlw	24
  3446  072E  0180               	clrf	0
  3447  072F  0AD5               	incf	twinkle_update@i,f
  3448  0730  0255               	subwf	twinkle_update@i,w
  3449  0731  1C03               	skipc
  3450  0732  2F1B               	goto	l3313
  3451                           
  3452                           ;effects.c: 121: }
  3453                           ;effects.c: 124: for (unsigned char i = 0; i < 8; i++) {
  3454  0733  01D6               	clrf	twinkle_update@i_369
  3455  0734                     l3325:	
  3456                           
  3457                           ;effects.c: 126: stars[i].phase += stars[i].speed;
  3458  0734  27D8               	fcall	PL28	;call to abstracted procedure
  3459  0735  0800               	movf	0,w
  3460  0736  00D1               	movwf	??_twinkle_update
  3461  0737  27CC               	fcall	PL6	;call to abstracted procedure
  3462  0738  0851               	movf	??_twinkle_update,w
  3463  0739  0780               	addwf	0,f
  3464                           
  3465                           ;effects.c: 127: if (stars[i].phase >= 100) {
  3466  073A  27CC               	fcall	PL6	;call to abstracted procedure
  3467  073B  3064               	movlw	100
  3468  073C  0200               	subwf	0,w
  3469                           
  3470                           ;effects.c: 128: stars[i].phase = 0;
  3471  073D  0856               	movf	twinkle_update@i_369,w
  3472  073E  1C03               	skipc
  3473  073F  2F60               	goto	L14
  3474  0740  0756               	addwf	twinkle_update@i_369,w
  3475  0741  0756               	addwf	twinkle_update@i_369,w
  3476  0742  3E21               	addlw	(low ((_stars| 0+1)))& (0+255)
  3477  0743  0084               	movwf	4
  3478  0744  0180               	clrf	0
  3479                           
  3480                           ;effects.c: 130: stars[i].pos = (stars[i].pos + 13) % 24;
  3481  0745  27D2               	fcall	PL8	;call to abstracted procedure
  3482  0746  0800               	movf	0,w
  3483  0747  00F2               	movwf	___awmod@dividend
  3484  0748  300D               	movlw	13
  3485  0749  01F3               	clrf	___awmod@dividend+1
  3486  074A  26FB               	fcall	PL2	;call to abstracted procedure
  3487  074B  228D               	fcall	___awmod
  3488  074C  0870               	movf	?___awmod,w
  3489  074D  00D1               	movwf	??_twinkle_update
  3490  074E  27D2               	fcall	PL8	;call to abstracted procedure
  3491  074F  0851               	movf	??_twinkle_update,w
  3492  0750  1383               	bcf	3,7	;select IRP bank0
  3493  0751  0080               	movwf	0
  3494                           
  3495                           ;effects.c: 131: stars[i].speed = 2 + ((stars[i].speed + i) % 4);
  3496  0752  27D8               	fcall	PL28	;call to abstracted procedure
  3497  0753  0856               	movf	twinkle_update@i_369,w
  3498  0754  0700               	addwf	0,w
  3499  0755  3903               	andlw	3
  3500  0756  3E02               	addlw	2
  3501  0757  00D1               	movwf	??_twinkle_update
  3502  0758  0856               	movf	twinkle_update@i_369,w
  3503  0759  0756               	addwf	twinkle_update@i_369,w
  3504  075A  0756               	addwf	twinkle_update@i_369,w
  3505  075B  3E22               	addlw	(low ((_stars| 0+2)))& (0+255)
  3506  075C  0084               	movwf	4
  3507  075D  0851               	movf	??_twinkle_update,w
  3508  075E  0080               	movwf	0
  3509                           
  3510                           ;effects.c: 132: }
  3511                           ;effects.c: 135: unsigned char brightness;
  3512                           ;effects.c: 136: if (stars[i].phase < 50) {
  3513  075F  0856               	movf	twinkle_update@i_369,w
  3514  0760                     L14:	
  3515  0760  0756               	addwf	twinkle_update@i_369,w
  3516  0761  0756               	addwf	twinkle_update@i_369,w
  3517  0762  3E21               	addlw	(low ((_stars| 0+1)))& (0+255)
  3518  0763  0084               	movwf	4
  3519  0764  3032               	movlw	50
  3520  0765  0200               	subwf	0,w
  3521                           
  3522                           ;effects.c: 138: brightness = (stars[i].phase * 5) + (stars[i].phase * 3 / 10);
  3523  0766  300A               	movlw	10
  3524  0767  00F6               	movwf	___awdiv@divisor
  3525  0768  1803               	skipnc
  3526  0769  2F81               	goto	L15
  3527  076A  01F7               	clrf	___awdiv@divisor+1
  3528  076B  27CC               	fcall	PL6	;call to abstracted procedure
  3529  076C  0800               	movf	0,w
  3530  076D  00F0               	movwf	___wmul@multiplier
  3531  076E  3003               	movlw	3
  3532  076F  01F1               	clrf	___wmul@multiplier+1
  3533  0770  00F2               	movwf	___wmul@multiplicand
  3534  0771  01F3               	clrf	___wmul@multiplicand+1
  3535  0772  20D9               	fcall	___wmul
  3536  0773  27DE               	fcall	PL32	;call to abstracted procedure
  3537  0774  22CA               	fcall	___awdiv
  3538  0775  0876               	movf	?___awdiv,w
  3539  0776  00D1               	movwf	??_twinkle_update
  3540  0777  0877               	movf	?___awdiv+1,w
  3541  0778  00D2               	movwf	??_twinkle_update+1
  3542  0779  3005               	movlw	5
  3543  077A  00F0               	movwf	___bmul@multiplicand
  3544  077B  27CC               	fcall	PL6	;call to abstracted procedure
  3545  077C  1383               	bcf	3,7	;select IRP bank0
  3546  077D  0800               	movf	0,w
  3547  077E  20CB               	fcall	___bmul
  3548  077F  0751               	addwf	??_twinkle_update,w
  3549  0780  2F9C               	goto	L12
  3550  0781                     L15:	
  3551                           ;effects.c: 141: brightness = ((100 - stars[i].phase) * 5) + ((100 - stars[i].phase) * 3
      +                           / 10);
  3552                           
  3553                           ;effects.c: 139: } else {
  3554                           
  3555  0781  3064               	movlw	100
  3556  0782  01F7               	clrf	___awdiv@divisor+1
  3557  0783  00F0               	movwf	___wmul@multiplier
  3558  0784  01F1               	clrf	___wmul@multiplier+1
  3559  0785  27CC               	fcall	PL6	;call to abstracted procedure
  3560  0786  0800               	movf	0,w
  3561  0787  02F0               	subwf	___wmul@multiplier,f
  3562  0788  1C03               	skipc
  3563  0789  03F1               	decf	___wmul@multiplier+1,f
  3564  078A  3003               	movlw	3
  3565  078B  00F2               	movwf	___wmul@multiplicand
  3566  078C  01F3               	clrf	___wmul@multiplicand+1
  3567  078D  20D9               	fcall	___wmul
  3568  078E  27DE               	fcall	PL32	;call to abstracted procedure
  3569  078F  22CA               	fcall	___awdiv
  3570  0790  0876               	movf	?___awdiv,w
  3571  0791  00D1               	movwf	??_twinkle_update
  3572  0792  0877               	movf	?___awdiv+1,w
  3573  0793  00D2               	movwf	??_twinkle_update+1
  3574  0794  30FB               	movlw	251
  3575  0795  00F0               	movwf	___bmul@multiplicand
  3576  0796  27CC               	fcall	PL6	;call to abstracted procedure
  3577  0797  1383               	bcf	3,7	;select IRP bank0
  3578  0798  0800               	movf	0,w
  3579  0799  20CB               	fcall	___bmul
  3580  079A  0751               	addwf	??_twinkle_update,w
  3581  079B  3EF4               	addlw	244
  3582  079C                     L12:	
  3583  079C  00D4               	movwf	twinkle_update@brightness
  3584                           
  3585                           ;effects.c: 142: }
  3586                           ;effects.c: 145: unsigned char color = (stars[i].pos + i) % 3;
  3587  079D  3003               	movlw	3
  3588  079E  00F0               	movwf	___awmod@divisor
  3589  079F  01F1               	clrf	___awmod@divisor+1
  3590  07A0  27D2               	fcall	PL8	;call to abstracted procedure
  3591  07A1  1383               	bcf	3,7	;select IRP bank0
  3592  07A2  0800               	movf	0,w
  3593  07A3  0756               	addwf	twinkle_update@i_369,w
  3594  07A4  00F2               	movwf	___awmod@dividend
  3595  07A5  01F3               	clrf	___awmod@dividend+1
  3596  07A6  0DF3               	rlf	___awmod@dividend+1,f
  3597  07A7  228D               	fcall	___awmod
  3598  07A8  0870               	movf	?___awmod,w
  3599  07A9  00D3               	movwf	twinkle_update@color
  3600                           
  3601                           ;effects.c: 146: if (color == 0) {
  3602  07AA  0853               	movf	twinkle_update@color,w
  3603  07AB  1D03               	btfss	3,2
  3604  07AC  2FB1               	goto	l3343
  3605                           
  3606                           ;effects.c: 147: leds[stars[i].pos].r = brightness;
  3607  07AD  0856               	movf	twinkle_update@i_369,w
  3608  07AE  27C3               	fcall	PL4	;call to abstracted procedure
  3609  07AF  3EA0               	addlw	(low (_leds| 0))& (0+255)
  3610  07B0  2FBA               	goto	L13
  3611  07B1                     l3343:	
  3612                           ;effects.c: 148: } else if (color == 1) {
  3613                           
  3614  07B1  0B53               	decfsz	twinkle_update@color,w
  3615  07B2  2FB7               	goto	l3347
  3616                           
  3617                           ;effects.c: 149: leds[stars[i].pos].g = brightness;
  3618  07B3  0856               	movf	twinkle_update@i_369,w
  3619  07B4  27C3               	fcall	PL4	;call to abstracted procedure
  3620  07B5  3EA1               	addlw	(low ((_leds| 0+1)))& (0+255)
  3621  07B6  2FBA               	goto	L13
  3622  07B7                     l3347:	
  3623                           ;effects.c: 150: } else {
  3624                           
  3625                           
  3626                           ;effects.c: 151: leds[stars[i].pos].b = brightness;
  3627  07B7  0856               	movf	twinkle_update@i_369,w
  3628  07B8  27C3               	fcall	PL4	;call to abstracted procedure
  3629  07B9  3EA2               	addlw	(low ((_leds| 0+2)))& (0+255)
  3630  07BA                     L13:	
  3631  07BA  0084               	movwf	4
  3632  07BB  0854               	movf	twinkle_update@brightness,w
  3633  07BC  0080               	movwf	0
  3634  07BD  3008               	movlw	8
  3635  07BE  0AD6               	incf	twinkle_update@i_369,f
  3636  07BF  0256               	subwf	twinkle_update@i_369,w
  3637  07C0  1803               	btfsc	3,0
  3638  07C1  0008               	return
  3639  07C2  2F34               	goto	l3325
  3640  07C3                     __end_of_twinkle_update:	
  3641  07C3                     PL4:	
  3642  07C3  0756               	addwf	twinkle_update@i_369,w
  3643  07C4  0756               	addwf	twinkle_update@i_369,w
  3644  07C5  3E20               	addlw	(low (_stars| 0))& (0+255)
  3645  07C6  0084               	movwf	4
  3646  07C7  1383               	bcf	3,7	;select IRP bank0
  3647  07C8  0800               	movf	0,w
  3648  07C9  0700               	addwf	0,w
  3649  07CA  0700               	addwf	0,w
  3650  07CB  0008               	return
  3651  07CC                     __end_ofPL4:	
  3652  07CC                     PL6:	
  3653  07CC  0856               	movf	twinkle_update@i_369,w
  3654  07CD  0756               	addwf	twinkle_update@i_369,w
  3655  07CE  0756               	addwf	twinkle_update@i_369,w
  3656  07CF  3E21               	addlw	(low ((_stars| 0+1)))& (0+255)
  3657  07D0  0084               	movwf	4
  3658  07D1  0008               	return
  3659  07D2                     __end_ofPL6:	
  3660  07D2                     PL8:	
  3661  07D2  0856               	movf	twinkle_update@i_369,w
  3662  07D3  0756               	addwf	twinkle_update@i_369,w
  3663  07D4  0756               	addwf	twinkle_update@i_369,w
  3664  07D5  3E20               	addlw	(low (_stars| 0))& (0+255)
  3665  07D6  0084               	movwf	4
  3666  07D7  0008               	return
  3667  07D8                     __end_ofPL8:	
  3668  07D8                     PL28:	
  3669  07D8  0856               	movf	twinkle_update@i_369,w
  3670  07D9  0756               	addwf	twinkle_update@i_369,w
  3671  07DA  0756               	addwf	twinkle_update@i_369,w
  3672  07DB  3E22               	addlw	(low ((_stars| 0+2)))& (0+255)
  3673  07DC  0084               	movwf	4
  3674  07DD  0008               	return
  3675  07DE                     __end_ofPL28:	
  3676  07DE                     PL32:	
  3677  07DE  0871               	movf	?___wmul+1,w
  3678  07DF  00F9               	movwf	___awdiv@dividend+1
  3679  07E0  0870               	movf	?___wmul,w
  3680  07E1  00F8               	movwf	___awdiv@dividend
  3681  07E2  0008               	return
  3682  07E3                     __end_ofPL32:	
  3683                           
  3684                           	psect	text18
  3685  02CA                     __ptext18:	
  3686 ;; *************** function ___awdiv *****************
  3687 ;; Defined at:
  3688 ;;		line 6 in file "F:\Program Files\SCMCU_IDE_V2.00.16\data\sources\common\awdiv.c"
  3689 ;; Parameters:    Size  Location     Type
  3690 ;;  divisor         2    6[COMMON] int 
  3691 ;;  dividend        2    8[COMMON] int 
  3692 ;; Auto vars:     Size  Location     Type
  3693 ;;  quotient        2   12[COMMON] int 
  3694 ;;  sign            1   11[COMMON] unsigned char 
  3695 ;;  counter         1   10[COMMON] unsigned char 
  3696 ;; Return value:  Size  Location     Type
  3697 ;;                  2    6[COMMON] int 
  3698 ;; Registers used:
  3699 ;;		wreg, status,2, status,0
  3700 ;; Tracked objects:
  3701 ;;		On entry : 100/0
  3702 ;;		On exit  : 100/0
  3703 ;;		Unchanged: 100/0
  3704 ;; Data sizes:     COMMON   BANK0   BANK1
  3705 ;;      Params:         4       0       0
  3706 ;;      Locals:         4       0       0
  3707 ;;      Temps:          0       0       0
  3708 ;;      Totals:         8       0       0
  3709 ;;Total ram usage:        8 bytes
  3710 ;; Hardware stack levels used:    1
  3711 ;; This function calls:
  3712 ;;		Nothing
  3713 ;; This function is called by:
  3714 ;;		_twinkle_update
  3715 ;; This function uses a non-reentrant model
  3716 ;;
  3717                           
  3718                           
  3719                           ;psect for function ___awdiv
  3720  02CA                     ___awdiv:	
  3721                           
  3722                           ;incstack = 0
  3723                           ; Regs used in ___awdiv: [wreg+status,2+status,0]
  3724  02CA  01FB               	clrf	___awdiv@sign
  3725  02CB  1FF7               	btfss	___awdiv@divisor+1,7
  3726  02CC  2AD4               	goto	l3143
  3727  02CD  09F6               	comf	___awdiv@divisor,f
  3728  02CE  09F7               	comf	___awdiv@divisor+1,f
  3729  02CF  0AF6               	incf	___awdiv@divisor,f
  3730  02D0  1903               	skipnz
  3731  02D1  0AF7               	incf	___awdiv@divisor+1,f
  3732  02D2  01FB               	clrf	___awdiv@sign
  3733  02D3  0AFB               	incf	___awdiv@sign,f
  3734  02D4                     l3143:	
  3735  02D4  1FF9               	btfss	___awdiv@dividend+1,7
  3736  02D5  2ADD               	goto	l3149
  3737  02D6  09F8               	comf	___awdiv@dividend,f
  3738  02D7  09F9               	comf	___awdiv@dividend+1,f
  3739  02D8  0AF8               	incf	___awdiv@dividend,f
  3740  02D9  1903               	skipnz
  3741  02DA  0AF9               	incf	___awdiv@dividend+1,f
  3742  02DB  3001               	movlw	1
  3743  02DC  06FB               	xorwf	___awdiv@sign,f
  3744  02DD                     l3149:	
  3745  02DD  01FC               	clrf	___awdiv@quotient
  3746  02DE  01FD               	clrf	___awdiv@quotient+1
  3747  02DF  0876               	movf	___awdiv@divisor,w
  3748  02E0  0477               	iorwf	___awdiv@divisor+1,w
  3749  02E1  1903               	btfsc	3,2
  3750  02E2  2B02               	goto	l3171
  3751  02E3  01FA               	clrf	___awdiv@counter
  3752  02E4                     L16:	
  3753  02E4  0AFA               	incf	___awdiv@counter,f
  3754  02E5  1BF7               	btfsc	___awdiv@divisor+1,7
  3755  02E6  2AEB               	goto	l3159
  3756  02E7  1003               	clrc
  3757  02E8  0DF6               	rlf	___awdiv@divisor,f
  3758  02E9  0DF7               	rlf	___awdiv@divisor+1,f
  3759  02EA  2AE4               	goto	L16
  3760  02EB                     l3159:	
  3761  02EB  1003               	clrc
  3762  02EC  0DFC               	rlf	___awdiv@quotient,f
  3763  02ED  0DFD               	rlf	___awdiv@quotient+1,f
  3764  02EE  0877               	movf	___awdiv@divisor+1,w
  3765  02EF  0279               	subwf	___awdiv@dividend+1,w
  3766  02F0  1D03               	skipz
  3767  02F1  2AF4               	goto	u1375
  3768  02F2  0876               	movf	___awdiv@divisor,w
  3769  02F3  0278               	subwf	___awdiv@dividend,w
  3770  02F4                     u1375:	
  3771  02F4  1C03               	skipc
  3772  02F5  2AFE               	goto	L17
  3773  02F6  0876               	movf	___awdiv@divisor,w
  3774  02F7  02F8               	subwf	___awdiv@dividend,f
  3775  02F8  0877               	movf	___awdiv@divisor+1,w
  3776  02F9  1C03               	skipc
  3777  02FA  03F9               	decf	___awdiv@dividend+1,f
  3778  02FB  02F9               	subwf	___awdiv@dividend+1,f
  3779  02FC  147C               	bsf	___awdiv@quotient,0
  3780  02FD  1003               	clrc
  3781  02FE                     L17:	
  3782  02FE  0CF7               	rrf	___awdiv@divisor+1,f
  3783  02FF  0CF6               	rrf	___awdiv@divisor,f
  3784  0300  0BFA               	decfsz	___awdiv@counter,f
  3785  0301  2AEB               	goto	l3159
  3786  0302                     l3171:	
  3787  0302  087B               	movf	___awdiv@sign,w
  3788  0303  1903               	btfsc	3,2
  3789  0304  2B0A               	goto	l3175
  3790  0305  09FC               	comf	___awdiv@quotient,f
  3791  0306  09FD               	comf	___awdiv@quotient+1,f
  3792  0307  0AFC               	incf	___awdiv@quotient,f
  3793  0308  1903               	skipnz
  3794  0309  0AFD               	incf	___awdiv@quotient+1,f
  3795  030A                     l3175:	
  3796  030A  087D               	movf	___awdiv@quotient+1,w
  3797  030B  00F7               	movwf	?___awdiv+1
  3798  030C  087C               	movf	___awdiv@quotient,w
  3799  030D  00F6               	movwf	?___awdiv
  3800  030E  0008               	return
  3801  030F                     __end_of___awdiv:	
  3802                           
  3803                           	psect	text19
  3804  0145                     __ptext19:	
  3805 ;; *************** function _random_value *****************
  3806 ;; Defined at:
  3807 ;;		line 221 in file "H:\8bit-RGB\effects.c"
  3808 ;; Parameters:    Size  Location     Type
  3809 ;;  seed            1    wreg     unsigned char 
  3810 ;; Auto vars:     Size  Location     Type
  3811 ;;  seed            1    8[COMMON] unsigned char 
  3812 ;; Return value:  Size  Location     Type
  3813 ;;                  1    wreg      unsigned char 
  3814 ;; Registers used:
  3815 ;;		wreg, status,2, status,0, pclath, cstack
  3816 ;; Tracked objects:
  3817 ;;		On entry : 100/0
  3818 ;;		On exit  : 100/0
  3819 ;;		Unchanged: 0/0
  3820 ;; Data sizes:     COMMON   BANK0   BANK1
  3821 ;;      Params:         0       0       0
  3822 ;;      Locals:         1       0       0
  3823 ;;      Temps:          2       0       0
  3824 ;;      Totals:         3       0       0
  3825 ;;Total ram usage:        3 bytes
  3826 ;; Hardware stack levels used:    1
  3827 ;; Hardware stack levels required when called:    1
  3828 ;; This function calls:
  3829 ;;		___wmul
  3830 ;; This function is called by:
  3831 ;;		_expand_update
  3832 ;; This function uses a non-reentrant model
  3833 ;;
  3834                           
  3835                           
  3836                           ;psect for function _random_value
  3837  0145                     _random_value:	
  3838                           
  3839                           ;incstack = 0
  3840                           ; Regs used in _random_value: [wreg+status,2+status,0+pclath+cstack]
  3841                           ;random_value@seed stored from wreg
  3842  0145  00F8               	movwf	random_value@seed
  3843                           
  3844                           ;effects.c: 222: static unsigned short rand_state = 12345;
  3845                           ;effects.c: 223: rand_state = rand_state * 1103515245 + seed * 257;
  3846  0146  00F0               	movwf	___wmul@multiplier
  3847  0147  3001               	movlw	1
  3848  0148  01F1               	clrf	___wmul@multiplier+1
  3849  0149  00F2               	movwf	___wmul@multiplicand
  3850  014A  00F3               	movwf	___wmul@multiplicand+1
  3851  014B  20D9               	fcall	___wmul
  3852  014C  0870               	movf	?___wmul,w
  3853  014D  00F6               	movwf	??_random_value
  3854  014E  0871               	movf	?___wmul+1,w
  3855  014F  00F7               	movwf	??_random_value+1
  3856  0150  085C               	movf	random_value@rand_state+1,w
  3857  0151  00F1               	movwf	___wmul@multiplier+1
  3858  0152  085B               	movf	random_value@rand_state,w
  3859  0153  00F0               	movwf	___wmul@multiplier
  3860  0154  306D               	movlw	109
  3861  0155  00F2               	movwf	___wmul@multiplicand
  3862  0156  304E               	movlw	78
  3863  0157  00F3               	movwf	___wmul@multiplicand+1
  3864  0158  20D9               	fcall	___wmul
  3865  0159  0870               	movf	?___wmul,w
  3866  015A  0776               	addwf	??_random_value,w
  3867  015B  00DB               	movwf	random_value@rand_state
  3868  015C  0871               	movf	?___wmul+1,w
  3869  015D  1803               	skipnc
  3870  015E  0A71               	incf	?___wmul+1,w
  3871  015F  0777               	addwf	??_random_value+1,w
  3872  0160  00DC               	movwf	random_value@rand_state+1
  3873                           
  3874                           ;effects.c: 224: return (unsigned char)(rand_state >> 8);
  3875  0161  0008               	return
  3876  0162                     __end_of_random_value:	
  3877                           
  3878                           	psect	text20
  3879  028D                     __ptext20:	
  3880 ;; *************** function ___awmod *****************
  3881 ;; Defined at:
  3882 ;;		line 6 in file "F:\Program Files\SCMCU_IDE_V2.00.16\data\sources\common\awmod.c"
  3883 ;; Parameters:    Size  Location     Type
  3884 ;;  divisor         2    0[COMMON] int 
  3885 ;;  dividend        2    2[COMMON] int 
  3886 ;; Auto vars:     Size  Location     Type
  3887 ;;  sign            1    5[COMMON] unsigned char 
  3888 ;;  counter         1    4[COMMON] unsigned char 
  3889 ;; Return value:  Size  Location     Type
  3890 ;;                  2    0[COMMON] int 
  3891 ;; Registers used:
  3892 ;;		wreg, status,2, status,0
  3893 ;; Tracked objects:
  3894 ;;		On entry : 100/0
  3895 ;;		On exit  : 100/0
  3896 ;;		Unchanged: 100/0
  3897 ;; Data sizes:     COMMON   BANK0   BANK1
  3898 ;;      Params:         4       0       0
  3899 ;;      Locals:         2       0       0
  3900 ;;      Temps:          0       0       0
  3901 ;;      Totals:         6       0       0
  3902 ;;Total ram usage:        6 bytes
  3903 ;; Hardware stack levels used:    1
  3904 ;; This function calls:
  3905 ;;		Nothing
  3906 ;; This function is called by:
  3907 ;;		_breath_update
  3908 ;;		_twinkle_update
  3909 ;;		_chase_update
  3910 ;;		_expand_update
  3911 ;;		_marquee_update
  3912 ;;		_ws2812_update_RGB
  3913 ;;		_key_scan
  3914 ;; This function uses a non-reentrant model
  3915 ;;
  3916                           
  3917                           
  3918                           ;psect for function ___awmod
  3919  028D                     ___awmod:	
  3920                           
  3921                           ;incstack = 0
  3922                           ; Regs used in ___awmod: [wreg+status,2+status,0]
  3923  028D  01F5               	clrf	___awmod@sign
  3924  028E  1FF3               	btfss	___awmod@dividend+1,7
  3925  028F  2A97               	goto	l3187
  3926  0290  09F2               	comf	___awmod@dividend,f
  3927  0291  09F3               	comf	___awmod@dividend+1,f
  3928  0292  0AF2               	incf	___awmod@dividend,f
  3929  0293  1903               	skipnz
  3930  0294  0AF3               	incf	___awmod@dividend+1,f
  3931  0295  01F5               	clrf	___awmod@sign
  3932  0296  0AF5               	incf	___awmod@sign,f
  3933  0297                     l3187:	
  3934  0297  1FF1               	btfss	___awmod@divisor+1,7
  3935  0298  2A9E               	goto	l3191
  3936  0299  09F0               	comf	___awmod@divisor,f
  3937  029A  09F1               	comf	___awmod@divisor+1,f
  3938  029B  0AF0               	incf	___awmod@divisor,f
  3939  029C  1903               	skipnz
  3940  029D  0AF1               	incf	___awmod@divisor+1,f
  3941  029E                     l3191:	
  3942  029E  0870               	movf	___awmod@divisor,w
  3943  029F  0471               	iorwf	___awmod@divisor+1,w
  3944  02A0  1903               	btfsc	3,2
  3945  02A1  2ABD               	goto	l3207
  3946  02A2  01F4               	clrf	___awmod@counter
  3947  02A3                     L18:	
  3948  02A3  0AF4               	incf	___awmod@counter,f
  3949  02A4  1BF1               	btfsc	___awmod@divisor+1,7
  3950  02A5  2AAA               	goto	l3199
  3951  02A6  1003               	clrc
  3952  02A7  0DF0               	rlf	___awmod@divisor,f
  3953  02A8  0DF1               	rlf	___awmod@divisor+1,f
  3954  02A9  2AA3               	goto	L18
  3955  02AA                     l3199:	
  3956  02AA  0871               	movf	___awmod@divisor+1,w
  3957  02AB  0273               	subwf	___awmod@dividend+1,w
  3958  02AC  1D03               	skipz
  3959  02AD  2AB0               	goto	u1445
  3960  02AE  0870               	movf	___awmod@divisor,w
  3961  02AF  0272               	subwf	___awmod@dividend,w
  3962  02B0                     u1445:	
  3963  02B0  1C03               	skipc
  3964  02B1  2AB9               	goto	L19
  3965  02B2  0870               	movf	___awmod@divisor,w
  3966  02B3  02F2               	subwf	___awmod@dividend,f
  3967  02B4  0871               	movf	___awmod@divisor+1,w
  3968  02B5  1C03               	skipc
  3969  02B6  03F3               	decf	___awmod@dividend+1,f
  3970  02B7  02F3               	subwf	___awmod@dividend+1,f
  3971  02B8  1003               	clrc
  3972  02B9                     L19:	
  3973  02B9  0CF1               	rrf	___awmod@divisor+1,f
  3974  02BA  0CF0               	rrf	___awmod@divisor,f
  3975  02BB  0BF4               	decfsz	___awmod@counter,f
  3976  02BC  2AAA               	goto	l3199
  3977  02BD                     l3207:	
  3978  02BD  0875               	movf	___awmod@sign,w
  3979  02BE  1903               	btfsc	3,2
  3980  02BF  2AC5               	goto	l3211
  3981  02C0  09F2               	comf	___awmod@dividend,f
  3982  02C1  09F3               	comf	___awmod@dividend+1,f
  3983  02C2  0AF2               	incf	___awmod@dividend,f
  3984  02C3  1903               	skipnz
  3985  02C4  0AF3               	incf	___awmod@dividend+1,f
  3986  02C5                     l3211:	
  3987  02C5  0873               	movf	___awmod@dividend+1,w
  3988  02C6  00F1               	movwf	?___awmod+1
  3989  02C7  0872               	movf	___awmod@dividend,w
  3990  02C8  00F0               	movwf	?___awmod
  3991  02C9  0008               	return
  3992  02CA                     __end_of___awmod:	
  3993                           
  3994                           	psect	text21
  3995  00B5                     __ptext21:	
  3996 ;; *************** function _effect_init *****************
  3997 ;; Defined at:
  3998 ;;		line 464 in file "H:\8bit-RGB\effects.c"
  3999 ;; Parameters:    Size  Location     Type
  4000 ;;		None
  4001 ;; Auto vars:     Size  Location     Type
  4002 ;;		None
  4003 ;; Return value:  Size  Location     Type
  4004 ;;                  1    wreg      void 
  4005 ;; Registers used:
  4006 ;;		wreg, fsr0l, fsr0h, status,2, status,0, pclath, cstack
  4007 ;; Tracked objects:
  4008 ;;		On entry : 100/0
  4009 ;;		On exit  : 100/0
  4010 ;;		Unchanged: 0/0
  4011 ;; Data sizes:     COMMON   BANK0   BANK1
  4012 ;;      Params:         0       0       0
  4013 ;;      Locals:         0       0       0
  4014 ;;      Temps:          0       0       0
  4015 ;;      Totals:         0       0       0
  4016 ;;Total ram usage:        0 bytes
  4017 ;; Hardware stack levels used:    1
  4018 ;; Hardware stack levels required when called:    2
  4019 ;; This function calls:
  4020 ;;		_breath_init
  4021 ;;		_chase_init
  4022 ;;		_expand_init
  4023 ;;		_marquee_init
  4024 ;;		_police_init
  4025 ;;		_stack_init
  4026 ;;		_twinkle_init
  4027 ;; This function is called by:
  4028 ;;		_main
  4029 ;; This function uses a non-reentrant model
  4030 ;;
  4031                           
  4032                           
  4033                           ;psect for function _effect_init
  4034  00B5                     _effect_init:	
  4035                           
  4036                           ;effects.c: 466: if (current_effect < EFFECT_COUNT) {
  4037                           
  4038                           ;incstack = 0
  4039                           ; Regs used in _effect_init: [wreg-fsr0h+status,2+status,0+pclath+cstack]
  4040  00B5  3007               	movlw	7
  4041  00B6  0250               	subwf	_current_effect,w	;volatile
  4042  00B7  1803               	skipnc
  4043  00B8  0008               	return
  4044                           
  4045                           ;effects.c: 467: effects[current_effect].init();
  4046  00B9  1003               	clrc
  4047  00BA  0D50               	rlf	_current_effect,w	;volatile
  4048  00BB  3E01               	addlw	low ((_effects-__stringbase)| (0+32768))
  4049  00BC  0084               	movwf	4
  4050  00BD  2015               	fcall	stringdir
  4051  00BE  2001               	fcall	fptable
  4052  00BF  0008               	return
  4053  00C0                     __end_of_effect_init:	
  4054                           
  4055                           	psect	text22
  4056  0129                     __ptext22:	
  4057 ;; *************** function _police_init *****************
  4058 ;; Defined at:
  4059 ;;		line 422 in file "H:\8bit-RGB\effects.c"
  4060 ;; Parameters:    Size  Location     Type
  4061 ;;		None
  4062 ;; Auto vars:     Size  Location     Type
  4063 ;;  i               1    0[COMMON] unsigned char 
  4064 ;; Return value:  Size  Location     Type
  4065 ;;                  1    wreg      void 
  4066 ;; Registers used:
  4067 ;;		wreg, fsr0l, fsr0h, status,2, status,0
  4068 ;; Tracked objects:
  4069 ;;		On entry : 100/0
  4070 ;;		On exit  : 900/0
  4071 ;;		Unchanged: 0/0
  4072 ;; Data sizes:     COMMON   BANK0   BANK1
  4073 ;;      Params:         0       0       0
  4074 ;;      Locals:         1       0       0
  4075 ;;      Temps:          0       0       0
  4076 ;;      Totals:         1       0       0
  4077 ;;Total ram usage:        1 bytes
  4078 ;; Hardware stack levels used:    1
  4079 ;; This function calls:
  4080 ;;		Nothing
  4081 ;; This function is called by:
  4082 ;;		_effect_execute
  4083 ;;		_effect_init
  4084 ;; This function uses a non-reentrant model
  4085 ;;
  4086                           
  4087                           
  4088                           ;psect for function _police_init
  4089  0129                     _police_init:	
  4090                           
  4091                           ;effects.c: 423: police_state = 0;
  4092                           
  4093                           ;incstack = 0
  4094                           ; Regs used in _police_init: [wreg-fsr0h+status,2+status,0]
  4095  0129  01BD               	clrf	_police_state
  4096                           
  4097                           ;effects.c: 424: police_counter = 0;
  4098  012A  01BC               	clrf	_police_counter
  4099                           
  4100                           ;effects.c: 425: for (unsigned char i = 0; i < 24; i++) {
  4101  012B  01F0               	clrf	police_init@i
  4102  012C                     l3079:	
  4103                           
  4104                           ;effects.c: 426: leds[i].r = 0;
  4105  012C  0870               	movf	police_init@i,w
  4106  012D  0770               	addwf	police_init@i,w
  4107  012E  0770               	addwf	police_init@i,w
  4108  012F  3EA0               	addlw	(low (_leds| 0))& (0+255)
  4109  0130  0084               	movwf	4
  4110  0131  1383               	bcf	3,7	;select IRP bank1
  4111  0132  0180               	clrf	0
  4112                           
  4113                           ;effects.c: 427: leds[i].g = 0;
  4114  0133  0870               	movf	police_init@i,w
  4115  0134  0770               	addwf	police_init@i,w
  4116  0135  0770               	addwf	police_init@i,w
  4117  0136  3EA1               	addlw	(low ((_leds| 0+1)))& (0+255)
  4118  0137  0084               	movwf	4
  4119  0138  0180               	clrf	0
  4120                           
  4121                           ;effects.c: 428: leds[i].b = 0;
  4122  0139  0870               	movf	police_init@i,w
  4123  013A  0770               	addwf	police_init@i,w
  4124  013B  0770               	addwf	police_init@i,w
  4125  013C  3EA2               	addlw	(low ((_leds| 0+2)))& (0+255)
  4126  013D  0084               	movwf	4
  4127  013E  3018               	movlw	24
  4128  013F  0180               	clrf	0
  4129  0140  0AF0               	incf	police_init@i,f
  4130  0141  0270               	subwf	police_init@i,w
  4131  0142  1803               	btfsc	3,0
  4132  0143  0008               	return
  4133  0144  292C               	goto	l3079
  4134  0145                     __end_of_police_init:	
  4135                           
  4136                           	psect	text23
  4137  0162                     __ptext23:	
  4138 ;; *************** function _stack_init *****************
  4139 ;; Defined at:
  4140 ;;		line 359 in file "H:\8bit-RGB\effects.c"
  4141 ;; Parameters:    Size  Location     Type
  4142 ;;		None
  4143 ;; Auto vars:     Size  Location     Type
  4144 ;;  i               1    0[COMMON] unsigned char 
  4145 ;; Return value:  Size  Location     Type
  4146 ;;                  1    wreg      void 
  4147 ;; Registers used:
  4148 ;;		wreg, fsr0l, fsr0h, status,2, status,0
  4149 ;; Tracked objects:
  4150 ;;		On entry : 100/0
  4151 ;;		On exit  : 900/0
  4152 ;;		Unchanged: 0/0
  4153 ;; Data sizes:     COMMON   BANK0   BANK1
  4154 ;;      Params:         0       0       0
  4155 ;;      Locals:         1       0       0
  4156 ;;      Temps:          0       0       0
  4157 ;;      Totals:         1       0       0
  4158 ;;Total ram usage:        1 bytes
  4159 ;; Hardware stack levels used:    1
  4160 ;; This function calls:
  4161 ;;		Nothing
  4162 ;; This function is called by:
  4163 ;;		_stack_update
  4164 ;;		_effect_execute
  4165 ;;		_effect_init
  4166 ;; This function uses a non-reentrant model
  4167 ;;
  4168                           
  4169                           
  4170                           ;psect for function _stack_init
  4171  0162                     _stack_init:	
  4172  0162                     l3055:	
  4173                           ;incstack = 0
  4174                           ; Regs used in _stack_init: [wreg-fsr0h+status,2+status,0]
  4175                           
  4176  0162  3017               	movlw	23
  4177                           
  4178                           ;effects.c: 360: stack_runner = 0;
  4179  0163  01C1               	clrf	_stack_runner
  4180                           
  4181                           ;effects.c: 361: stack_target = 23;
  4182  0164  00DE               	movwf	_stack_target
  4183                           
  4184                           ;effects.c: 362: stack_lit_count = 0;
  4185  0165  01C0               	clrf	_stack_lit_count
  4186                           
  4187                           ;effects.c: 363: stack_delay = 0;
  4188  0166  01BF               	clrf	_stack_delay
  4189                           
  4190                           ;effects.c: 364: for (unsigned char i = 0; i < 24; i++) {
  4191  0167  01F0               	clrf	stack_init@i
  4192  0168                     l3067:	
  4193                           
  4194                           ;effects.c: 365: leds[i].r = 0;
  4195  0168  0870               	movf	stack_init@i,w
  4196  0169  0770               	addwf	stack_init@i,w
  4197  016A  0770               	addwf	stack_init@i,w
  4198  016B  3EA0               	addlw	(low (_leds| 0))& (0+255)
  4199  016C  0084               	movwf	4
  4200  016D  1383               	bcf	3,7	;select IRP bank1
  4201  016E  0180               	clrf	0
  4202                           
  4203                           ;effects.c: 366: leds[i].g = 0;
  4204  016F  0870               	movf	stack_init@i,w
  4205  0170  0770               	addwf	stack_init@i,w
  4206  0171  0770               	addwf	stack_init@i,w
  4207  0172  3EA1               	addlw	(low ((_leds| 0+1)))& (0+255)
  4208  0173  0084               	movwf	4
  4209  0174  0180               	clrf	0
  4210                           
  4211                           ;effects.c: 367: leds[i].b = 0;
  4212  0175  0870               	movf	stack_init@i,w
  4213  0176  0770               	addwf	stack_init@i,w
  4214  0177  0770               	addwf	stack_init@i,w
  4215  0178  3EA2               	addlw	(low ((_leds| 0+2)))& (0+255)
  4216  0179  0084               	movwf	4
  4217  017A  3018               	movlw	24
  4218  017B  0180               	clrf	0
  4219  017C  0AF0               	incf	stack_init@i,f
  4220  017D  0270               	subwf	stack_init@i,w
  4221  017E  1803               	btfsc	3,0
  4222  017F  0008               	return
  4223  0180  2968               	goto	l3067
  4224  0181                     __end_of_stack_init:	
  4225                           
  4226                           	psect	text24
  4227  01EA                     __ptext24:	
  4228 ;; *************** function _marquee_init *****************
  4229 ;; Defined at:
  4230 ;;		line 293 in file "H:\8bit-RGB\effects.c"
  4231 ;; Parameters:    Size  Location     Type
  4232 ;;		None
  4233 ;; Auto vars:     Size  Location     Type
  4234 ;;  i               1    1[COMMON] unsigned char 
  4235 ;;  i               1    0[COMMON] unsigned char 
  4236 ;; Return value:  Size  Location     Type
  4237 ;;                  1    wreg      void 
  4238 ;; Registers used:
  4239 ;;		wreg, fsr0l, fsr0h, status,2, status,0
  4240 ;; Tracked objects:
  4241 ;;		On entry : 100/0
  4242 ;;		On exit  : 900/0
  4243 ;;		Unchanged: 0/0
  4244 ;; Data sizes:     COMMON   BANK0   BANK1
  4245 ;;      Params:         0       0       0
  4246 ;;      Locals:         2       0       0
  4247 ;;      Temps:          0       0       0
  4248 ;;      Totals:         2       0       0
  4249 ;;Total ram usage:        2 bytes
  4250 ;; Hardware stack levels used:    1
  4251 ;; This function calls:
  4252 ;;		Nothing
  4253 ;; This function is called by:
  4254 ;;		_effect_execute
  4255 ;;		_effect_init
  4256 ;; This function uses a non-reentrant model
  4257 ;;
  4258                           
  4259                           
  4260                           ;psect for function _marquee_init
  4261  01EA                     _marquee_init:	
  4262                           
  4263                           ;effects.c: 294: marquee_pos = 0;
  4264                           
  4265                           ;incstack = 0
  4266                           ; Regs used in _marquee_init: [wreg-fsr0h+status,2+status,0]
  4267  01EA  01C4               	clrf	_marquee_pos
  4268                           
  4269                           ;effects.c: 296: for (unsigned char i = 0; i < 24; i++) {
  4270  01EB  01F0               	clrf	marquee_init@i
  4271  01EC                     l3037:	
  4272                           
  4273                           ;effects.c: 297: leds[i].r = 0;
  4274  01EC  0870               	movf	marquee_init@i,w
  4275  01ED  0770               	addwf	marquee_init@i,w
  4276  01EE  0770               	addwf	marquee_init@i,w
  4277  01EF  3EA0               	addlw	(low (_leds| 0))& (0+255)
  4278  01F0  0084               	movwf	4
  4279  01F1  1383               	bcf	3,7	;select IRP bank1
  4280  01F2  0180               	clrf	0
  4281                           
  4282                           ;effects.c: 298: leds[i].g = 0;
  4283  01F3  0870               	movf	marquee_init@i,w
  4284  01F4  0770               	addwf	marquee_init@i,w
  4285  01F5  0770               	addwf	marquee_init@i,w
  4286  01F6  3EA1               	addlw	(low ((_leds| 0+1)))& (0+255)
  4287  01F7  0084               	movwf	4
  4288  01F8  0180               	clrf	0
  4289                           
  4290                           ;effects.c: 299: leds[i].b = 0;
  4291  01F9  0870               	movf	marquee_init@i,w
  4292  01FA  0770               	addwf	marquee_init@i,w
  4293  01FB  0770               	addwf	marquee_init@i,w
  4294  01FC  3EA2               	addlw	(low ((_leds| 0+2)))& (0+255)
  4295  01FD  0084               	movwf	4
  4296  01FE  3018               	movlw	24
  4297  01FF  0180               	clrf	0
  4298  0200  0AF0               	incf	marquee_init@i,f
  4299  0201  0270               	subwf	marquee_init@i,w
  4300  0202  1C03               	skipc
  4301  0203  29EC               	goto	l3037
  4302                           
  4303                           ;effects.c: 300: }
  4304                           ;effects.c: 301: for (unsigned char i = 0; i < 8; i++) {
  4305  0204  01F1               	clrf	marquee_init@i_407
  4306  0205                     l3049:	
  4307                           
  4308                           ;effects.c: 302: leds[i].r = 255;
  4309  0205  0871               	movf	marquee_init@i_407,w
  4310  0206  0771               	addwf	marquee_init@i_407,w
  4311  0207  0771               	addwf	marquee_init@i_407,w
  4312  0208  3EA0               	addlw	(low (_leds| 0))& (0+255)
  4313  0209  0084               	movwf	4
  4314  020A  30FF               	movlw	255
  4315  020B  0080               	movwf	0
  4316                           
  4317                           ;effects.c: 303: leds[i].g = 0;
  4318  020C  0871               	movf	marquee_init@i_407,w
  4319  020D  0771               	addwf	marquee_init@i_407,w
  4320  020E  0771               	addwf	marquee_init@i_407,w
  4321  020F  3EA1               	addlw	(low ((_leds| 0+1)))& (0+255)
  4322  0210  0084               	movwf	4
  4323  0211  0180               	clrf	0
  4324                           
  4325                           ;effects.c: 304: leds[i].b = 0;
  4326  0212  0871               	movf	marquee_init@i_407,w
  4327  0213  0771               	addwf	marquee_init@i_407,w
  4328  0214  0771               	addwf	marquee_init@i_407,w
  4329  0215  3EA2               	addlw	(low ((_leds| 0+2)))& (0+255)
  4330  0216  0084               	movwf	4
  4331  0217  3008               	movlw	8
  4332  0218  0180               	clrf	0
  4333  0219  0AF1               	incf	marquee_init@i_407,f
  4334  021A  0271               	subwf	marquee_init@i_407,w
  4335  021B  1803               	btfsc	3,0
  4336  021C  0008               	return
  4337  021D  2A05               	goto	l3049
  4338  021E                     __end_of_marquee_init:	
  4339                           
  4340                           	psect	text25
  4341  01A3                     __ptext25:	
  4342 ;; *************** function _expand_init *****************
  4343 ;; Defined at:
  4344 ;;		line 227 in file "H:\8bit-RGB\effects.c"
  4345 ;; Parameters:    Size  Location     Type
  4346 ;;		None
  4347 ;; Auto vars:     Size  Location     Type
  4348 ;;  i               1    0[COMMON] unsigned char 
  4349 ;; Return value:  Size  Location     Type
  4350 ;;                  1    wreg      void 
  4351 ;; Registers used:
  4352 ;;		wreg, fsr0l, fsr0h, status,2, status,0
  4353 ;; Tracked objects:
  4354 ;;		On entry : 100/0
  4355 ;;		On exit  : 900/0
  4356 ;;		Unchanged: 0/0
  4357 ;; Data sizes:     COMMON   BANK0   BANK1
  4358 ;;      Params:         0       0       0
  4359 ;;      Locals:         1       0       0
  4360 ;;      Temps:          0       0       0
  4361 ;;      Totals:         1       0       0
  4362 ;;Total ram usage:        1 bytes
  4363 ;; Hardware stack levels used:    1
  4364 ;; This function calls:
  4365 ;;		Nothing
  4366 ;; This function is called by:
  4367 ;;		_effect_execute
  4368 ;;		_effect_init
  4369 ;; This function uses a non-reentrant model
  4370 ;;
  4371                           
  4372                           
  4373                           ;psect for function _expand_init
  4374  01A3                     _expand_init:	
  4375  01A3  30FF               	movlw	255
  4376                           
  4377                           ;effects.c: 228: expand_size = 0;
  4378                           
  4379                           ;incstack = 0
  4380                           ; Regs used in _expand_init: [wreg-fsr0h+status,2+status,0]
  4381  01A4  01C8               	clrf	_expand_size
  4382                           
  4383                           ;effects.c: 229: expand_dir = 1;
  4384  01A5  01E1               	clrf	_expand_dir
  4385  01A6  0AE1               	incf	_expand_dir,f
  4386                           
  4387                           ;effects.c: 230: expand_r = 255;
  4388  01A7  00E0               	movwf	_expand_r
  4389                           
  4390                           ;effects.c: 231: expand_g = 0;
  4391  01A8  01C7               	clrf	_expand_g
  4392                           
  4393                           ;effects.c: 232: expand_b = 0;
  4394  01A9  01C6               	clrf	_expand_b
  4395                           
  4396                           ;effects.c: 233: expand_seed = 1;
  4397  01AA  01DF               	clrf	_expand_seed
  4398  01AB  0ADF               	incf	_expand_seed,f
  4399                           
  4400                           ;effects.c: 234: for (unsigned char i = 0; i < 24; i++) {
  4401  01AC  01F0               	clrf	expand_init@i
  4402  01AD                     l3025:	
  4403                           
  4404                           ;effects.c: 235: leds[i].r = 0;
  4405  01AD  0870               	movf	expand_init@i,w
  4406  01AE  0770               	addwf	expand_init@i,w
  4407  01AF  0770               	addwf	expand_init@i,w
  4408  01B0  3EA0               	addlw	(low (_leds| 0))& (0+255)
  4409  01B1  0084               	movwf	4
  4410  01B2  1383               	bcf	3,7	;select IRP bank1
  4411  01B3  0180               	clrf	0
  4412                           
  4413                           ;effects.c: 236: leds[i].g = 0;
  4414  01B4  0870               	movf	expand_init@i,w
  4415  01B5  0770               	addwf	expand_init@i,w
  4416  01B6  0770               	addwf	expand_init@i,w
  4417  01B7  3EA1               	addlw	(low ((_leds| 0+1)))& (0+255)
  4418  01B8  0084               	movwf	4
  4419  01B9  0180               	clrf	0
  4420                           
  4421                           ;effects.c: 237: leds[i].b = 0;
  4422  01BA  0870               	movf	expand_init@i,w
  4423  01BB  0770               	addwf	expand_init@i,w
  4424  01BC  0770               	addwf	expand_init@i,w
  4425  01BD  3EA2               	addlw	(low ((_leds| 0+2)))& (0+255)
  4426  01BE  0084               	movwf	4
  4427  01BF  3018               	movlw	24
  4428  01C0  0180               	clrf	0
  4429  01C1  0AF0               	incf	expand_init@i,f
  4430  01C2  0270               	subwf	expand_init@i,w
  4431  01C3  1803               	btfsc	3,0
  4432  01C4  0008               	return
  4433  01C5  29AD               	goto	l3025
  4434  01C6                     __end_of_expand_init:	
  4435                           
  4436                           	psect	text26
  4437  010D                     __ptext26:	
  4438 ;; *************** function _chase_init *****************
  4439 ;; Defined at:
  4440 ;;		line 161 in file "H:\8bit-RGB\effects.c"
  4441 ;; Parameters:    Size  Location     Type
  4442 ;;		None
  4443 ;; Auto vars:     Size  Location     Type
  4444 ;;  i               1    0[COMMON] unsigned char 
  4445 ;; Return value:  Size  Location     Type
  4446 ;;                  1    wreg      void 
  4447 ;; Registers used:
  4448 ;;		wreg, fsr0l, fsr0h, status,2, status,0
  4449 ;; Tracked objects:
  4450 ;;		On entry : 100/0
  4451 ;;		On exit  : 900/0
  4452 ;;		Unchanged: 0/0
  4453 ;; Data sizes:     COMMON   BANK0   BANK1
  4454 ;;      Params:         0       0       0
  4455 ;;      Locals:         1       0       0
  4456 ;;      Temps:          0       0       0
  4457 ;;      Totals:         1       0       0
  4458 ;;Total ram usage:        1 bytes
  4459 ;; Hardware stack levels used:    1
  4460 ;; This function calls:
  4461 ;;		Nothing
  4462 ;; This function is called by:
  4463 ;;		_effect_execute
  4464 ;;		_effect_init
  4465 ;; This function uses a non-reentrant model
  4466 ;;
  4467                           
  4468                           
  4469                           ;psect for function _chase_init
  4470  010D                     _chase_init:	
  4471                           
  4472                           ;effects.c: 162: chase_pos = 0;
  4473                           
  4474                           ;incstack = 0
  4475                           ; Regs used in _chase_init: [wreg-fsr0h+status,2+status,0]
  4476  010D  01CB               	clrf	_chase_pos
  4477                           
  4478                           ;effects.c: 163: chase_color_idx = 0;
  4479  010E  01CA               	clrf	_chase_color_idx
  4480                           
  4481                           ;effects.c: 165: for (unsigned char i = 0; i < 24; i++) {
  4482  010F  01F0               	clrf	chase_init@i
  4483  0110                     l3003:	
  4484                           
  4485                           ;effects.c: 166: leds[i].r = 0;
  4486  0110  0870               	movf	chase_init@i,w
  4487  0111  0770               	addwf	chase_init@i,w
  4488  0112  0770               	addwf	chase_init@i,w
  4489  0113  3EA0               	addlw	(low (_leds| 0))& (0+255)
  4490  0114  0084               	movwf	4
  4491  0115  1383               	bcf	3,7	;select IRP bank1
  4492  0116  0180               	clrf	0
  4493                           
  4494                           ;effects.c: 167: leds[i].g = 0;
  4495  0117  0870               	movf	chase_init@i,w
  4496  0118  0770               	addwf	chase_init@i,w
  4497  0119  0770               	addwf	chase_init@i,w
  4498  011A  3EA1               	addlw	(low ((_leds| 0+1)))& (0+255)
  4499  011B  0084               	movwf	4
  4500  011C  0180               	clrf	0
  4501                           
  4502                           ;effects.c: 168: leds[i].b = 0;
  4503  011D  0870               	movf	chase_init@i,w
  4504  011E  0770               	addwf	chase_init@i,w
  4505  011F  0770               	addwf	chase_init@i,w
  4506  0120  3EA2               	addlw	(low ((_leds| 0+2)))& (0+255)
  4507  0121  0084               	movwf	4
  4508  0122  3018               	movlw	24
  4509  0123  0180               	clrf	0
  4510  0124  0AF0               	incf	chase_init@i,f
  4511  0125  0270               	subwf	chase_init@i,w
  4512  0126  1803               	btfsc	3,0
  4513  0127  0008               	return
  4514  0128  2910               	goto	l3003
  4515  0129                     __end_of_chase_init:	
  4516                           
  4517                           	psect	text27
  4518  008C                     __ptext27:	
  4519 ;; *************** function _breath_init *****************
  4520 ;; Defined at:
  4521 ;;		line 16 in file "H:\8bit-RGB\effects.c"
  4522 ;; Parameters:    Size  Location     Type
  4523 ;;		None
  4524 ;; Auto vars:     Size  Location     Type
  4525 ;;		None
  4526 ;; Return value:  Size  Location     Type
  4527 ;;                  1    wreg      void 
  4528 ;; Registers used:
  4529 ;;		wreg, status,2
  4530 ;; Tracked objects:
  4531 ;;		On entry : 100/0
  4532 ;;		On exit  : 100/0
  4533 ;;		Unchanged: 0/0
  4534 ;; Data sizes:     COMMON   BANK0   BANK1
  4535 ;;      Params:         0       0       0
  4536 ;;      Locals:         0       0       0
  4537 ;;      Temps:          0       0       0
  4538 ;;      Totals:         0       0       0
  4539 ;;Total ram usage:        0 bytes
  4540 ;; Hardware stack levels used:    1
  4541 ;; This function calls:
  4542 ;;		Nothing
  4543 ;; This function is called by:
  4544 ;;		_effect_execute
  4545 ;;		_effect_init
  4546 ;; This function uses a non-reentrant model
  4547 ;;
  4548                           
  4549                           
  4550                           ;psect for function _breath_init
  4551  008C                     _breath_init:	
  4552                           
  4553                           ;effects.c: 17: breath_val = 25;
  4554                           
  4555                           ;incstack = 0
  4556                           ; Regs used in _breath_init: [wreg+status,2]
  4557  008C  3019               	movlw	25
  4558  008D  00E2               	movwf	_breath_val
  4559                           
  4560                           ;effects.c: 18: breath_dir = 1;
  4561  008E  01E3               	clrf	_breath_dir
  4562  008F  0AE3               	incf	_breath_dir,f
  4563                           
  4564                           ;effects.c: 19: breath_color = 0;
  4565  0090  01CF               	clrf	_breath_color
  4566                           
  4567                           ;effects.c: 20: breath_transition = 0;
  4568  0091  01CE               	clrf	_breath_transition
  4569  0092  0008               	return
  4570  0093                     __end_of_breath_init:	
  4571                           
  4572                           	psect	text28
  4573  0368                     __ptext28:	
  4574 ;; *************** function _twinkle_init *****************
  4575 ;; Defined at:
  4576 ;;		line 94 in file "H:\8bit-RGB\effects.c"
  4577 ;; Parameters:    Size  Location     Type
  4578 ;;		None
  4579 ;; Auto vars:     Size  Location     Type
  4580 ;;  i               1   12[COMMON] unsigned char 
  4581 ;;  i               1   11[COMMON] unsigned char 
  4582 ;; Return value:  Size  Location     Type
  4583 ;;                  1    wreg      void 
  4584 ;; Registers used:
  4585 ;;		wreg, fsr0l, fsr0h, status,2, status,0, pclath, cstack
  4586 ;; Tracked objects:
  4587 ;;		On entry : 100/0
  4588 ;;		On exit  : 900/0
  4589 ;;		Unchanged: 0/0
  4590 ;; Data sizes:     COMMON   BANK0   BANK1
  4591 ;;      Params:         0       0       0
  4592 ;;      Locals:         2       0       0
  4593 ;;      Temps:          0       0       0
  4594 ;;      Totals:         2       0       0
  4595 ;;Total ram usage:        2 bytes
  4596 ;; Hardware stack levels used:    1
  4597 ;; Hardware stack levels required when called:    1
  4598 ;; This function calls:
  4599 ;;		___bmul
  4600 ;;		___lwmod
  4601 ;;		___wmul
  4602 ;; This function is called by:
  4603 ;;		_effect_execute
  4604 ;;		_effect_init
  4605 ;; This function uses a non-reentrant model
  4606 ;;
  4607                           
  4608                           
  4609                           ;psect for function _twinkle_init
  4610  0368                     _twinkle_init:	
  4611                           
  4612                           ;effects.c: 96: for (unsigned char i = 0; i < 24; i++) {
  4613                           
  4614                           ;incstack = 0
  4615                           ; Regs used in _twinkle_init: [wreg-fsr0h+status,2+status,0+pclath+cstack]
  4616  0368  01FB               	clrf	twinkle_init@i
  4617  0369                     l2977:	
  4618                           
  4619                           ;effects.c: 97: leds[i].r = 0;
  4620  0369  087B               	movf	twinkle_init@i,w
  4621  036A  077B               	addwf	twinkle_init@i,w
  4622  036B  077B               	addwf	twinkle_init@i,w
  4623  036C  3EA0               	addlw	(low (_leds| 0))& (0+255)
  4624  036D  0084               	movwf	4
  4625  036E  1383               	bcf	3,7	;select IRP bank1
  4626  036F  0180               	clrf	0
  4627                           
  4628                           ;effects.c: 98: leds[i].g = 0;
  4629  0370  087B               	movf	twinkle_init@i,w
  4630  0371  077B               	addwf	twinkle_init@i,w
  4631  0372  077B               	addwf	twinkle_init@i,w
  4632  0373  3EA1               	addlw	(low ((_leds| 0+1)))& (0+255)
  4633  0374  0084               	movwf	4
  4634  0375  0180               	clrf	0
  4635                           
  4636                           ;effects.c: 99: leds[i].b = 0;
  4637  0376  087B               	movf	twinkle_init@i,w
  4638  0377  077B               	addwf	twinkle_init@i,w
  4639  0378  077B               	addwf	twinkle_init@i,w
  4640  0379  3EA2               	addlw	(low ((_leds| 0+2)))& (0+255)
  4641  037A  0084               	movwf	4
  4642  037B  3018               	movlw	24
  4643  037C  0180               	clrf	0
  4644  037D  0AFB               	incf	twinkle_init@i,f
  4645  037E  027B               	subwf	twinkle_init@i,w
  4646  037F  1C03               	skipc
  4647  0380  2B69               	goto	l2977
  4648                           
  4649                           ;effects.c: 100: }
  4650                           ;effects.c: 102: for (unsigned char i = 0; i < 8; i++) {
  4651  0381  01FC               	clrf	twinkle_init@i_363
  4652  0382                     l2989:	
  4653                           
  4654                           ;effects.c: 103: stars[i].pos = (system_tick_ms + i * 29) % 24;
  4655  0382  087C               	movf	twinkle_init@i_363,w
  4656  0383  077C               	addwf	twinkle_init@i_363,w
  4657  0384  077C               	addwf	twinkle_init@i_363,w
  4658  0385  3E20               	addlw	(low (_stars| 0))& (0+255)
  4659  0386  0084               	movwf	4
  4660  0387  3018               	movlw	24
  4661  0388  00F6               	movwf	___lwmod@divisor
  4662  0389  01F7               	clrf	___lwmod@divisor+1
  4663  038A  087C               	movf	twinkle_init@i_363,w
  4664  038B  00F0               	movwf	___wmul@multiplier
  4665  038C  301D               	movlw	29
  4666  038D  01F1               	clrf	___wmul@multiplier+1
  4667  038E  00F2               	movwf	___wmul@multiplicand
  4668  038F  01F3               	clrf	___wmul@multiplicand+1
  4669  0390  20D9               	fcall	___wmul
  4670  0391  23B5               	fcall	PL16	;call to abstracted procedure
  4671  0392  21C6               	fcall	___lwmod
  4672                           
  4673                           ;effects.c: 104: stars[i].phase = (system_tick_ms + i * 17) % 100;
  4674  0393  23BE               	fcall	PL22	;call to abstracted procedure
  4675  0394  3E21               	addlw	(low ((_stars| 0+1)))& (0+255)
  4676  0395  0084               	movwf	4
  4677  0396  3064               	movlw	100
  4678  0397  00F6               	movwf	___lwmod@divisor
  4679  0398  01F7               	clrf	___lwmod@divisor+1
  4680  0399  087C               	movf	twinkle_init@i_363,w
  4681  039A  00F0               	movwf	___wmul@multiplier
  4682  039B  3011               	movlw	17
  4683  039C  01F1               	clrf	___wmul@multiplier+1
  4684  039D  00F2               	movwf	___wmul@multiplicand
  4685  039E  01F3               	clrf	___wmul@multiplicand+1
  4686  039F  20D9               	fcall	___wmul
  4687  03A0  23B5               	fcall	PL16	;call to abstracted procedure
  4688  03A1  21C6               	fcall	___lwmod
  4689                           
  4690                           ;effects.c: 105: stars[i].speed = 2 + ((system_tick_ms + i * 11) % 4);
  4691  03A2  23BE               	fcall	PL22	;call to abstracted procedure
  4692  03A3  3E22               	addlw	(low ((_stars| 0+2)))& (0+255)
  4693  03A4  0084               	movwf	4
  4694  03A5  300B               	movlw	11
  4695  03A6  00F0               	movwf	___bmul@multiplicand
  4696  03A7  087C               	movf	twinkle_init@i_363,w
  4697  03A8  20CB               	fcall	___bmul
  4698  03A9  0738               	addwf	_system_tick_ms,w	;volatile
  4699  03AA  3903               	andlw	3
  4700  03AB  3E02               	addlw	2
  4701  03AC  1383               	bcf	3,7	;select IRP bank0
  4702  03AD  0080               	movwf	0
  4703  03AE  3008               	movlw	8
  4704  03AF  0AFC               	incf	twinkle_init@i_363,f
  4705  03B0  027C               	subwf	twinkle_init@i_363,w
  4706  03B1  1C03               	skipc
  4707  03B2  2B82               	goto	l2989
  4708                           
  4709                           ;effects.c: 106: }
  4710                           ;effects.c: 107: twinkle_counter = 0;
  4711  03B3  01CC               	clrf	_twinkle_counter
  4712  03B4  0008               	return
  4713  03B5                     __end_of_twinkle_init:	
  4714  03B5                     PL16:	
  4715  03B5  0838               	movf	_system_tick_ms,w	;volatile
  4716  03B6  0770               	addwf	?___wmul,w
  4717  03B7  00F8               	movwf	___lwmod@dividend
  4718  03B8  0839               	movf	_system_tick_ms+1,w	;volatile
  4719  03B9  1803               	skipnc
  4720  03BA  0A39               	incf	_system_tick_ms+1,w	;volatile
  4721  03BB  0771               	addwf	?___wmul+1,w
  4722  03BC  00F9               	movwf	___lwmod@dividend+1
  4723  03BD  0008               	return
  4724  03BE                     __end_ofPL16:	
  4725  03BE                     PL22:	
  4726  03BE  0876               	movf	?___lwmod,w
  4727  03BF  1383               	bcf	3,7	;select IRP bank0
  4728  03C0  0080               	movwf	0
  4729  03C1  087C               	movf	twinkle_init@i_363,w
  4730  03C2  077C               	addwf	twinkle_init@i_363,w
  4731  03C3  077C               	addwf	twinkle_init@i_363,w
  4732  03C4  0008               	return
  4733  03C5                     __end_ofPL22:	
  4734                           
  4735                           	psect	text29
  4736  00D9                     __ptext29:	
  4737 ;; *************** function ___wmul *****************
  4738 ;; Defined at:
  4739 ;;		line 15 in file "F:\Program Files\SCMCU_IDE_V2.00.16\data\sources\common\Umul16.c"
  4740 ;; Parameters:    Size  Location     Type
  4741 ;;  multiplier      2    0[COMMON] unsigned int 
  4742 ;;  multiplicand    2    2[COMMON] unsigned int 
  4743 ;; Auto vars:     Size  Location     Type
  4744 ;;  product         2    4[COMMON] unsigned int 
  4745 ;; Return value:  Size  Location     Type
  4746 ;;                  2    0[COMMON] unsigned int 
  4747 ;; Registers used:
  4748 ;;		wreg, status,2, status,0
  4749 ;; Tracked objects:
  4750 ;;		On entry : 100/0
  4751 ;;		On exit  : 100/0
  4752 ;;		Unchanged: 100/0
  4753 ;; Data sizes:     COMMON   BANK0   BANK1
  4754 ;;      Params:         4       0       0
  4755 ;;      Locals:         2       0       0
  4756 ;;      Temps:          0       0       0
  4757 ;;      Totals:         6       0       0
  4758 ;;Total ram usage:        6 bytes
  4759 ;; Hardware stack levels used:    1
  4760 ;; This function calls:
  4761 ;;		Nothing
  4762 ;; This function is called by:
  4763 ;;		_twinkle_init
  4764 ;;		_twinkle_update
  4765 ;;		_random_value
  4766 ;; This function uses a non-reentrant model
  4767 ;;
  4768                           
  4769                           
  4770                           ;psect for function ___wmul
  4771  00D9                     ___wmul:	
  4772                           
  4773                           ;incstack = 0
  4774                           ; Regs used in ___wmul: [wreg+status,2+status,0]
  4775  00D9  01F4               	clrf	___wmul@product
  4776  00DA  01F5               	clrf	___wmul@product+1
  4777  00DB                     l2915:	
  4778  00DB  1C70               	btfss	___wmul@multiplier,0
  4779  00DC  28E3               	goto	l2919
  4780  00DD  0872               	movf	___wmul@multiplicand,w
  4781  00DE  07F4               	addwf	___wmul@product,f
  4782  00DF  1803               	skipnc
  4783  00E0  0AF5               	incf	___wmul@product+1,f
  4784  00E1  0873               	movf	___wmul@multiplicand+1,w
  4785  00E2  07F5               	addwf	___wmul@product+1,f
  4786  00E3                     l2919:	
  4787  00E3  1003               	clrc
  4788  00E4  0DF2               	rlf	___wmul@multiplicand,f
  4789  00E5  0DF3               	rlf	___wmul@multiplicand+1,f
  4790  00E6  1003               	clrc
  4791  00E7  0CF1               	rrf	___wmul@multiplier+1,f
  4792  00E8  0CF0               	rrf	___wmul@multiplier,f
  4793  00E9  0870               	movf	___wmul@multiplier,w
  4794  00EA  0471               	iorwf	___wmul@multiplier+1,w
  4795  00EB  1D03               	btfss	3,2
  4796  00EC  28DB               	goto	l2915
  4797  00ED  0875               	movf	___wmul@product+1,w
  4798  00EE  00F1               	movwf	?___wmul+1
  4799  00EF  0874               	movf	___wmul@product,w
  4800  00F0  00F0               	movwf	?___wmul
  4801  00F1  0008               	return
  4802  00F2                     __end_of___wmul:	
  4803                           
  4804                           	psect	text30
  4805  01C6                     __ptext30:	
  4806 ;; *************** function ___lwmod *****************
  4807 ;; Defined at:
  4808 ;;		line 6 in file "F:\Program Files\SCMCU_IDE_V2.00.16\data\sources\common\lwmod.c"
  4809 ;; Parameters:    Size  Location     Type
  4810 ;;  divisor         2    6[COMMON] unsigned int 
  4811 ;;  dividend        2    8[COMMON] unsigned int 
  4812 ;; Auto vars:     Size  Location     Type
  4813 ;;  counter         1   10[COMMON] unsigned char 
  4814 ;; Return value:  Size  Location     Type
  4815 ;;                  2    6[COMMON] unsigned int 
  4816 ;; Registers used:
  4817 ;;		wreg, status,2, status,0
  4818 ;; Tracked objects:
  4819 ;;		On entry : 100/0
  4820 ;;		On exit  : 100/0
  4821 ;;		Unchanged: 100/0
  4822 ;; Data sizes:     COMMON   BANK0   BANK1
  4823 ;;      Params:         4       0       0
  4824 ;;      Locals:         1       0       0
  4825 ;;      Temps:          0       0       0
  4826 ;;      Totals:         5       0       0
  4827 ;;Total ram usage:        5 bytes
  4828 ;; Hardware stack levels used:    1
  4829 ;; This function calls:
  4830 ;;		Nothing
  4831 ;; This function is called by:
  4832 ;;		_twinkle_init
  4833 ;; This function uses a non-reentrant model
  4834 ;;
  4835                           
  4836                           
  4837                           ;psect for function ___lwmod
  4838  01C6                     ___lwmod:	
  4839                           
  4840                           ;incstack = 0
  4841                           ; Regs used in ___lwmod: [wreg+status,2+status,0]
  4842  01C6  0876               	movf	___lwmod@divisor,w
  4843  01C7  0477               	iorwf	___lwmod@divisor+1,w
  4844  01C8  1903               	btfsc	3,2
  4845  01C9  29E5               	goto	l2959
  4846  01CA  01FA               	clrf	___lwmod@counter
  4847  01CB                     L20:	
  4848  01CB  0AFA               	incf	___lwmod@counter,f
  4849  01CC  1BF7               	btfsc	___lwmod@divisor+1,7
  4850  01CD  29D2               	goto	l2951
  4851  01CE  1003               	clrc
  4852  01CF  0DF6               	rlf	___lwmod@divisor,f
  4853  01D0  0DF7               	rlf	___lwmod@divisor+1,f
  4854  01D1  29CB               	goto	L20
  4855  01D2                     l2951:	
  4856  01D2  0877               	movf	___lwmod@divisor+1,w
  4857  01D3  0279               	subwf	___lwmod@dividend+1,w
  4858  01D4  1D03               	skipz
  4859  01D5  29D8               	goto	u1135
  4860  01D6  0876               	movf	___lwmod@divisor,w
  4861  01D7  0278               	subwf	___lwmod@dividend,w
  4862  01D8                     u1135:	
  4863  01D8  1C03               	skipc
  4864  01D9  29E1               	goto	L21
  4865  01DA  0876               	movf	___lwmod@divisor,w
  4866  01DB  02F8               	subwf	___lwmod@dividend,f
  4867  01DC  0877               	movf	___lwmod@divisor+1,w
  4868  01DD  1C03               	skipc
  4869  01DE  03F9               	decf	___lwmod@dividend+1,f
  4870  01DF  02F9               	subwf	___lwmod@dividend+1,f
  4871  01E0  1003               	clrc
  4872  01E1                     L21:	
  4873  01E1  0CF7               	rrf	___lwmod@divisor+1,f
  4874  01E2  0CF6               	rrf	___lwmod@divisor,f
  4875  01E3  0BFA               	decfsz	___lwmod@counter,f
  4876  01E4  29D2               	goto	l2951
  4877  01E5                     l2959:	
  4878  01E5  0879               	movf	___lwmod@dividend+1,w
  4879  01E6  00F7               	movwf	?___lwmod+1
  4880  01E7  0878               	movf	___lwmod@dividend,w
  4881  01E8  00F6               	movwf	?___lwmod
  4882  01E9  0008               	return
  4883  01EA                     __end_of___lwmod:	
  4884                           
  4885                           	psect	text31
  4886  00CB                     __ptext31:	
  4887 ;; *************** function ___bmul *****************
  4888 ;; Defined at:
  4889 ;;		line 4 in file "F:\Program Files\SCMCU_IDE_V2.00.16\data\sources\common\Umul8.c"
  4890 ;; Parameters:    Size  Location     Type
  4891 ;;  multiplier      1    wreg     unsigned char 
  4892 ;;  multiplicand    1    0[COMMON] unsigned char 
  4893 ;; Auto vars:     Size  Location     Type
  4894 ;;  multiplier      1    2[COMMON] unsigned char 
  4895 ;;  product         1    1[COMMON] unsigned char 
  4896 ;; Return value:  Size  Location     Type
  4897 ;;                  1    wreg      unsigned char 
  4898 ;; Registers used:
  4899 ;;		wreg, status,2, status,0
  4900 ;; Tracked objects:
  4901 ;;		On entry : 100/0
  4902 ;;		On exit  : 100/0
  4903 ;;		Unchanged: 100/0
  4904 ;; Data sizes:     COMMON   BANK0   BANK1
  4905 ;;      Params:         1       0       0
  4906 ;;      Locals:         2       0       0
  4907 ;;      Temps:          0       0       0
  4908 ;;      Totals:         3       0       0
  4909 ;;Total ram usage:        3 bytes
  4910 ;; Hardware stack levels used:    1
  4911 ;; This function calls:
  4912 ;;		Nothing
  4913 ;; This function is called by:
  4914 ;;		_breath_update
  4915 ;;		_twinkle_init
  4916 ;;		_twinkle_update
  4917 ;; This function uses a non-reentrant model
  4918 ;;
  4919                           
  4920                           
  4921                           ;psect for function ___bmul
  4922  00CB                     ___bmul:	
  4923                           
  4924                           ;incstack = 0
  4925                           ; Regs used in ___bmul: [wreg+status,2+status,0]
  4926                           ;___bmul@multiplier stored from wreg
  4927  00CB  00F2               	movwf	___bmul@multiplier
  4928  00CC  01F1               	clrf	___bmul@product
  4929  00CD                     l2931:	
  4930  00CD  0870               	movf	___bmul@multiplicand,w
  4931  00CE  1872               	btfsc	___bmul@multiplier,0
  4932  00CF  07F1               	addwf	___bmul@product,f
  4933  00D0  1003               	clrc
  4934  00D1  0DF0               	rlf	___bmul@multiplicand,f
  4935  00D2  1003               	clrc
  4936  00D3  0CF2               	rrf	___bmul@multiplier,f
  4937  00D4  0872               	movf	___bmul@multiplier,w
  4938  00D5  1D03               	btfss	3,2
  4939  00D6  28CD               	goto	l2931
  4940  00D7  0871               	movf	___bmul@product,w
  4941  00D8  0008               	return
  4942  00D9                     __end_of___bmul:	
  4943  001C                     
  4944                           	psect	functab
  4945  0001                     __pfunctab:	
  4946  0001                     __fptable:	
  4947  0001                     fptable:	
  4948  0001  00FF               	movwf	(btemp+1)& (0+127)
  4949  0002  3000               	movlw	high fptable
  4950  0003  008A               	movwf	10
  4951  0004  087F               	movf	(btemp+1)& (0+127),w
  4952  0005  0782               	addwf	2,f
  4953  0006                     fpbase:	
  4954  0006  2806               	goto	fpbase	; Call via a null pointer and you will get stuck here.
  4955  0007                     fp__twinkle_init:	
  4956  0007  2B68               	ljmp	_twinkle_init
  4957  0008                     fp__breath_init:	
  4958  0008  288C               	ljmp	_breath_init
  4959  0009                     fp__chase_init:	
  4960  0009  290D               	ljmp	_chase_init
  4961  000A                     fp__expand_init:	
  4962  000A  29A3               	ljmp	_expand_init
  4963  000B                     fp__marquee_init:	
  4964  000B  29EA               	ljmp	_marquee_init
  4965  000C                     fp__stack_init:	
  4966  000C                     entry__stack_init:	
  4967  000C  2962               	ljmp	_stack_init
  4968  000D                     fp__police_init:	
  4969  000D  2929               	ljmp	_police_init
  4970  000E                     fp__twinkle_update:	
  4971  000E  2F14               	ljmp	_twinkle_update
  4972  000F                     fp__breath_update:	
  4973  000F  2CA0               	ljmp	_breath_update
  4974  0010                     fp__chase_update:	
  4975  0010  2D28               	ljmp	_chase_update
  4976  0011                     fp__expand_update:	
  4977  0011  2E4F               	ljmp	_expand_update
  4978  0012                     fp__marquee_update:	
  4979  0012  2C27               	ljmp	_marquee_update
  4980  0013                     fp__stack_update:	
  4981  0013  2BC5               	ljmp	_stack_update
  4982  0014                     fp__police_update:	
  4983  0014  2A1E               	ljmp	_police_update
  4984  0015                     __end_of__fptable:	
  4985  007E                     btemp	set	126	;btemp
  4986  007E                     wtemp0	set	126


Data Sizes:
    Strings     0
    Constant    14
    Data        9
    BSS         121
    Persistent  0
    Stack       0

Auto Spaces:
    Space          Size  Autos    Used
    COMMON           14     14      14
    BANK0            80     10      68
    BANK1            80      0      72

Pointer List with Targets:

    ws2812_update_RGB@leds	PTR struct . size(1) Largest target is 72
		 -> leds(BANK1[72]), 

    S38$update	PTR FTN()void  size(1) Largest target is 1
		 -> police_update(), stack_update(), marquee_update(), expand_update(), 
		 -> chase_update(), twinkle_update(), breath_update(), 

    effects.update	PTR FTN()void  size(1) Largest target is 1
		 -> police_update(), stack_update(), marquee_update(), expand_update(), 
		 -> chase_update(), twinkle_update(), breath_update(), 

    S38$init	PTR FTN()void  size(1) Largest target is 1
		 -> police_init(), stack_init(), marquee_init(), expand_init(), 
		 -> chase_init(), twinkle_init(), breath_init(), 

    effects.init	PTR FTN()void  size(1) Largest target is 1
		 -> police_init(), stack_init(), marquee_init(), expand_init(), 
		 -> chase_init(), twinkle_init(), breath_init(), 


Critical Paths under _main in COMMON

    _key_scan->_effect_execute
    _ws2812_update_RGB->_effect_execute
    _ws2812_send_color->_ws2812_send_byte
    _ws2812_reset->_delay_ms
    _effect_execute->_twinkle_init
    _effects_update->_expand_update
    _twinkle_update->___awdiv
    ___awdiv->___wmul
    _stack_update->_stack_init
    _marquee_update->___awmod
    _expand_update->_random_value
    _random_value->___wmul
    _chase_update->___awmod
    _breath_update->___awmod
    _effect_init->_twinkle_init
    _twinkle_init->___lwmod
    ___lwmod->___wmul

Critical Paths under _main in BANK0

    _main->_key_scan
    _key_scan->_ws2812_update_RGB
    _effects_update->_twinkle_update

Critical Paths under _main in BANK1

    None.

Call Graph Tables:

 ---------------------------------------------------------------------------------
 (Depth) Function   	        Calls       Base Space   Used Autos Params    Refs
 ---------------------------------------------------------------------------------
 (0) _main                                                 2     2      0   64934
                                              8 BANK0      2     2      0
                           _delay_ms
                        _effect_init
                     _effects_update
                           _key_scan
                  _system_clock_init
                   _ws2812_gpio_init
                  _ws2812_update_RGB
 ---------------------------------------------------------------------------------
 (1) _ws2812_gpio_init                                     0     0      0       0
 ---------------------------------------------------------------------------------
 (1) _system_clock_init                                    1     1      0      46
                                              0 COMMON     1     1      0
 ---------------------------------------------------------------------------------
 (1) _key_scan                                             2     2      0   20493
                                              6 BANK0      2     2      0
                            ___awmod
                           _delay_ms
                     _effect_execute
                  _ws2812_update_RGB
 ---------------------------------------------------------------------------------
 (1) _ws2812_update_RGB                                    6     5      1   10476
                                              0 BANK0      6     5      1
                            ___awmod
                     _effect_execute
                       _ws2812_reset
                  _ws2812_send_color
 ---------------------------------------------------------------------------------
 (2) _ws2812_send_color                                    3     0      3     297
                                              1 COMMON     3     0      3
                   _ws2812_send_byte
 ---------------------------------------------------------------------------------
 (3) _ws2812_send_byte                                     1     1      0     176
                                              0 COMMON     1     1      0
 ---------------------------------------------------------------------------------
 (2) _ws2812_reset                                         0     0      0     251
                           _delay_ms
 ---------------------------------------------------------------------------------
 (3) _delay_ms                                             6     4      2     251
                                              0 COMMON     6     4      2
 ---------------------------------------------------------------------------------
 (2) _effect_execute                                       1     1      0    7437
                                             13 COMMON     1     1      0
                        _breath_init *
                         _chase_init *
                        _expand_init *
                       _marquee_init *
                        _police_init *
                         _stack_init *
                       _twinkle_init *
 ---------------------------------------------------------------------------------
 (1) _effects_update                                       0     0      0   26250
                      _breath_update *
                       _chase_update *
                      _expand_update *
                     _marquee_update *
                      _police_update *
                       _stack_update *
                     _twinkle_update *
 ---------------------------------------------------------------------------------
 (2) _twinkle_update                                       6     6      0    9455
                                              0 BANK0      6     6      0
                            ___awdiv
                            ___awmod
                             ___bmul
                             ___wmul
 ---------------------------------------------------------------------------------
 (3) ___awdiv                                              8     4      4     512
                                              6 COMMON     8     4      4
                             ___wmul (ARG)
 ---------------------------------------------------------------------------------
 (2) _stack_update                                         2     2      0     336
                                              1 COMMON     2     2      0
                         _stack_init
 ---------------------------------------------------------------------------------
 (2) _police_update                                        4     4      0     183
                                              0 COMMON     4     4      0
 ---------------------------------------------------------------------------------
 (2) _marquee_update                                       7     7      0    2551
                                              6 COMMON     7     7      0
                            ___awmod
 ---------------------------------------------------------------------------------
 (2) _expand_update                                        5     5      0    8352
                                              9 COMMON     5     5      0
                            ___awmod
                       _random_value
 ---------------------------------------------------------------------------------
 (3) _random_value                                         3     3      0    5778
                                              6 COMMON     3     3      0
                             ___wmul
 ---------------------------------------------------------------------------------
 (2) _chase_update                                         7     7      0    2551
                                              6 COMMON     7     7      0
                            ___awmod
 ---------------------------------------------------------------------------------
 (2) _breath_update                                        6     6      0    2822
                                              6 COMMON     6     6      0
                            ___awmod
                             ___bmul
 ---------------------------------------------------------------------------------
 (2) ___awmod                                              6     2      4    2194
                                              0 COMMON     6     2      4
 ---------------------------------------------------------------------------------
 (1) _effect_init                                          0     0      0    7393
                        _breath_init *
                         _chase_init *
                        _expand_init *
                       _marquee_init *
                        _police_init *
                         _stack_init *
                       _twinkle_init *
 ---------------------------------------------------------------------------------
 (3) _twinkle_init                                         2     2      0    6721
                                             11 COMMON     2     2      0
                             ___bmul
                            ___lwmod
                             ___wmul
 ---------------------------------------------------------------------------------
 (4) ___wmul                                               6     2      4    5756
                                              0 COMMON     6     2      4
 ---------------------------------------------------------------------------------
 (4) ___lwmod                                              5     1      4     371
                                              6 COMMON     5     1      4
                             ___wmul (ARG)
 ---------------------------------------------------------------------------------
 (4) ___bmul                                               3     2      1     304
                                              0 COMMON     3     2      1
 ---------------------------------------------------------------------------------
 (3) _stack_init                                           1     1      0     112
                                              0 COMMON     1     1      0
 ---------------------------------------------------------------------------------
 (3) _police_init                                          1     1      0     112
                                              0 COMMON     1     1      0
 ---------------------------------------------------------------------------------
 (3) _marquee_init                                         2     2      0     224
                                              0 COMMON     2     2      0
 ---------------------------------------------------------------------------------
 (3) _expand_init                                          1     1      0     112
                                              0 COMMON     1     1      0
 ---------------------------------------------------------------------------------
 (3) _chase_init                                           1     1      0     112
                                              0 COMMON     1     1      0
 ---------------------------------------------------------------------------------
 (3) _breath_init                                          0     0      0       0
 ---------------------------------------------------------------------------------
 Estimated maximum stack depth 4
 ---------------------------------------------------------------------------------

 Call Graph Graphs:

 _main (ROOT)
   _delay_ms
   _effect_init
     _breath_init *
     _chase_init *
     _expand_init *
     _marquee_init *
     _police_init *
     _stack_init *
     _twinkle_init *
       ___bmul
       ___lwmod
         ___wmul (ARG)
       ___wmul
   _effects_update
     _breath_update *
       ___awmod
       ___bmul
     _chase_update *
       ___awmod
     _expand_update *
       ___awmod
       _random_value
         ___wmul
     _marquee_update *
       ___awmod
     _police_update *
     _stack_update *
       _stack_init
     _twinkle_update *
       ___awdiv
         ___wmul (ARG)
       ___awmod
       ___bmul
       ___wmul
   _key_scan
     ___awmod
     _delay_ms
     _effect_execute
       _breath_init *
       _chase_init *
       _expand_init *
       _marquee_init *
       _police_init *
       _stack_init *
       _twinkle_init *
         ___bmul
         ___lwmod
           ___wmul (ARG)
         ___wmul
     _ws2812_update_RGB
       ___awmod
       _effect_execute
         _breath_init *
         _chase_init *
         _expand_init *
         _marquee_init *
         _police_init *
         _stack_init *
         _twinkle_init *
           ___bmul
           ___lwmod
             ___wmul (ARG)
           ___wmul
       _ws2812_reset
         _delay_ms
       _ws2812_send_color
         _ws2812_send_byte
   _system_clock_init
   _ws2812_gpio_init
   _ws2812_update_RGB
     ___awmod
     _effect_execute
       _breath_init *
       _chase_init *
       _expand_init *
       _marquee_init *
       _police_init *
       _stack_init *
       _twinkle_init *
         ___bmul
         ___lwmod
           ___wmul (ARG)
         ___wmul
     _ws2812_reset
       _delay_ms
     _ws2812_send_color
       _ws2812_send_byte

 Address spaces:
Name               Size   Autos  Total    Cost      Usage
BANK1               50      0      48       6       90.0%
BITBANK1            50      0       0       5        0.0%
SFR1                 0      0       0       2        0.0%
BITSFR1              0      0       0       2        0.0%
BANK0               50      A      44       4       85.0%
BITBANK0            50      0       0       3        0.0%
SFR0                 0      0       0       1        0.0%
BITSFR0              0      0       0       1        0.0%
COMMON               E      E       E       1      100.0%
BITCOMMON            E      0       0       0        0.0%
CODE                 0      0       0       0        0.0%
DATA                 0      0      9A       8        0.0%
ABS                  0      0      9A       7        0.0%
NULL                 0      0       0       0        0.0%
STACK                0      0       0       2        0.0%


Microchip Technology PIC Macro Assembler V1.45 build -152302408 
Symbol Table                                                                                   Tue May 12 16:11:20 2026

                               pc 0002                    ___bmul@product 0071                   ??_breath_update 0076  
                              PL2 06FB                                PL4 07C3                                PL6 07CC  
                              PL8 07D2                      ___awdiv@sign 007B                                fsr 0004  
             ___wmul@multiplicand 0072                               PL10 0702                               PL20 0707  
                             PL12 0283                               PL30 0523                               PL22 03BE  
                             PL14 05A1                               PL32 07DE                               PL24 070D  
                             PL16 03B5                               PL26 0420                               PL18 05AA  
                             PL28 07D8                               _GIE 005F                               _RA0 0430  
                             _RB1 0031                               fsr0 0004                               indf 0000  
                    ___awmod@sign 0075           __size_of_effect_execute 0009                              S3941 0029  
                            S3943 002F                              S3945 0035                              S3947 0038  
                            l3003 0110                              l3025 01AD                              l1441 05C0  
                            l1450 0614                              l1442 05C8                              l1506 019A  
                            l3211 02C5                              l1435 00FE                              l1451 061F  
                            l1443 05D3                              l1452 0627                              l1444 05DB  
                            l1428 00AE                              l3037 01EC                              l1453 0632  
                            l1445 05E6                              l1454 063A                              l1446 05EE  
                            l3055 0162                              l3207 02BD                              l3143 02D4  
                            l1455 0645                              l1447 05F9                              l1456 064D  
                            l1448 0601                              l3049 0205                              l3313 071B  
                            l3241 04C9                              l1449 060C                              l1466 025A  
                            l3067 0168                              l3171 0302                              l3243 04CD  
                            l3251 04DD                              l1492 034F                              l3149 02DD  
                            l3325 0734                              l3245 04D1                              l3237 04C3  
                            l3085 00F2                              l3079 012C                              l3191 029E  
                            l3175 030A                              l3159 02EB                              l3343 07B1  
                            l3271 04FB                              l3407 0563                              l3249 04D5  
                            l3409 056E                              l3187 0297                              l3347 07B7  
                            l3283 0507                              l3267 04F5                              l3275 04FE  
                            l3259 04EB                              l3099 00F4                              l3269 04F8  
                            l3277 0506                              l3373 054B                              l3365 052F  
                            l3199 02AA                              l3455 065B                              l3551 044F  
                            l3711 025D                              l3393 055C                              l3385 0553  
                            l3377 054E                              l3561 0457                              l3545 044A  
                            l3537 042E                              l3633 03D4                              l3713 0274  
                            l2931 00CD                              l2915 00DB                              l3387 0555  
                            l3379 0550                              l3483 067D                              l3571 045E  
                            l3389 0558                              l3477 067C                              l3565 045B  
                            l3557 0452                              l3581 046D                              l3549 044D  
                            l2951 01D2                              l2919 00E3                              l3399 055F  
                            l3559 0454                              l3647 03F0                              l3639 03D5  
                            l3807 0188                              l3489 0696                              l3657 040B  
                            l3579 0462                              l3691 022F                              l3819 019E  
                            l3685 022E                              l3773 0333                              l3757 0320  
                            l2959 01E5                              l3759 0322                              l3783 0356  
                            l2977 0369                              l3793 0366                              l2989 0382  
                            u2030 032D                              u1135 01D8                              u2040 032E  
                            u1245 00FA                              u1445 02B0                              u1375 02F4  
                            u1900 0250                              u1890 024F                effect_execute@mode 007D  
                            _WPUA 0088              __end_of_chase_update 05A1                              _main 0181  
                            _leds 00A0                              btemp 007E                    expand_update@i 007D  
                random_value@seed 0078                  ??_marquee_update 0076                              start 0000  
               ___bmul@multiplier 0072                    fp__expand_init 000A           __size_of_effects_update 000B  
                           ?_main 0070                  ??_twinkle_update 0051                   __end_of___awdiv 030F  
                 __end_of___awmod 02CA                   ___awdiv@divisor 0076                   __end_of___lwmod 01EA  
                 ___awdiv@counter 007A                             _TRISA 0085                             _TRISB 0005  
       __size_of_ws2812_gpio_init 0007                   __end_of_effects 0029              __end_of_ws2812_reset 0086  
                  _system_tick_ms 0038          twinkle_update@brightness 0054                     fp__stack_init 000C  
               marquee_init@i_407 0071                      ?_expand_init 0070                             _stars 0020  
                           fpbase 0006                             pclath 000A             expand_update@left_402 007B  
                           status 0003                   fp__marquee_init 000B                             wtemp0 007E  
       __size_of_ws2812_send_byte 009C             ws2812_update_RGB@leds 0055             __size_of_twinkle_init 004D  
             chase_update@counter 0049              __size_of_effect_init 000B               chase_update@old_pos 0076  
                 __initialization 07E3                      __end_of_main 01A3                 _breath_transition 004E  
               _key_press_counter 003B                            ??_main 007E                     stack_update@i 0071  
                  fp__police_init 000D                  ___awdiv@dividend 0078                      _twinkle_init 0368  
                          _ANSEL0 0093                            _ANSEL1 0094              __size_of_breath_init 0007  
                          _OSCCON 0014                  __end_of__fptable 0015                  __end_of_delay_ms 010D  
                   ?_marquee_init 0070                            ___bmul 00CB                            ___wmul 00D9  
                       ??___awdiv 007A                         ??___awmod 0074                      ?_police_init 0070  
                       ??___lwmod 007A                  __end_of_key_scan 0368                   _chase_color_idx 004A  
                ___awdiv@quotient 007C                   ___awmod@divisor 0070                 marquee_update@pos 007A  
                 ___awmod@counter 0074                            fptable 0001                            fptotal 001C  
                  _effect_execute 00A2             __size_of_chase_update 0079           __end_of__initialization 07FE  
                  ??_marquee_init 0070               ___bmul@multiplicand 0070            expand_update@right_403 007C  
                  _effects_update 00C0                    __pcstackCOMMON 0070                      __pidataBANK0 0000  
                   ?_random_value 0070            __size_of_expand_update 00AC                  fp__expand_update 0011  
                      __end_ofPL2 0702                        __end_ofPL4 07CC                        __end_ofPL6 07D2  
                      __end_ofPL8 07D8             __size_of_ws2812_reset 0005                      _chase_update 0528  
          __end_of_effect_execute 00AB                  _ws2812_gpio_init 0093             __end_of_police_update 0252  
                      __pbssBANK0 0020                        __pbssBANK1 00A0              __size_of_expand_init 0023  
                      _chase_init 010D                  _ws2812_send_byte 05B3            __end_of_effects_update 00CB  
                    _ws2812_reset 0081                        __pmaintext 0181                           ?___bmul 0070  
                         ?___wmul 0070                    ??_random_value 0076             __end_of_breath_update 0523  
                      _breath_dir 0063                        _breath_val 0062                   ?_effect_execute 0070  
                       ?_delay_ms 0070            ws2812_send_color@color 0071                        __stringtab 0015  
                   _expand_update 064F                         ?_key_scan 0070                ws2812_update_RGB@i 0056  
                 ?_effects_update 0070                   _twinkle_counter 004C                   __size_of___bmul 000E  
                    _breath_color 004F                           ___awdiv 02CA                           ___awmod 028D  
                   chase_update@b 0079                     chase_update@g 0078                     chase_update@i 007C  
                   chase_update@r 0077                   __size_of___wmul 0019                           ___lwmod 01C6  
                         _effects 001B              __size_of_police_init 001C                 key_scan@next_mode 0057  
                         __ptext1 0093                           __ptext2 00AB                           __ptext3 030F  
                         __ptext4 0252                           __ptext5 0086                           __ptext6 05B3  
                         __ptext7 0081                           __ptext8 00F2                           __ptext9 00A2  
                      _expand_dir 0061                   fp__stack_update 0013                  ___awmod@dividend 0072  
                      ??_delay_ms 0072              __end_of_marquee_init 021E                           clrloop0 009B  
                  ?_expand_update 0070                        delay_ms@ms 0070              end_of_initialization 07FE  
               expand_update@left 0079                     ??_effect_init 007D                        ??_key_scan 007E  
                     ?_chase_init 0070             marquee_update@counter 0043             marquee_update@old_pos 0076  
              system_clock_init@i 0070                main@update_counter 0059           __size_of_marquee_update 0079  
               fp__marquee_update 0012                        _stack_init 0162                     ??_breath_init 0070  
                   ?_stack_update 0070                      expand_init@i 0070           __size_of_twinkle_update 00AF  
               fp__twinkle_update 000E              __end_of_random_value 0162                 chase_update@i_382 007B  
        __end_of_ws2812_gpio_init 009A                       stack_init@i 0070               __end_of_effect_init 00C0  
                  _police_counter 003C                 twinkle_init@i_363 007C                    __end_of___bmul 00D9  
                  __end_of___wmul 00F2          __end_of_ws2812_send_byte 064F              breath_update@counter 004D  
             __size_of_chase_init 001C              expand_update@counter 0045              breath_update@old_val 0079  
            breath_update@new_val 007A              ws2812_update_RGB@num 0051                       __end_ofPL10 0707  
                     __end_ofPL20 070D                       __end_ofPL12 028D                       __end_ofPL30 0528  
                     __end_ofPL22 03C5                       __end_ofPL14 05AA                       __end_ofPL32 07E3  
                     __end_ofPL24 0714                       __end_ofPL16 03BE                       __end_ofPL26 0427  
                     __end_ofPL18 05B3                       __end_ofPL28 07DE               start_initialization 07E3  
                 ??_expand_update 0079                    ??_stack_update 0071            random_value@rand_state 005B  
             __end_of_breath_init 0093               twinkle_update@i_369 0056  ws2812_update_RGB@key_was_pressed 0054  
             twinkle_update@color 0053                          ??___bmul 0071                          ??___wmul 0074  
                ??_effect_execute 007D                       __pdataBANK0 005B             __size_of_marquee_init 0034  
                  _current_effect 0050                       ?_stack_init 0070                   fp__twinkle_init 0007  
                       ___latbits 0000                     __pcstackBANK0 0051                   chase_update@pos 007A  
               __size_of__fptable 0014                    police_update@b 0072                    police_update@g 0070  
                  police_update@i 0073                    police_update@r 0071                     ??_expand_init 0070  
               __size_of_delay_ms 001B                 _ws2812_send_color 0086                  ??_effects_update 007E  
              ?_ws2812_send_color 0071                       _effect_init 00B5                         _chase_pos 004B  
               __size_of_key_scan 0059               ??_ws2812_send_color 0074                      _marquee_init 01EA  
                       __pfunctab 0001                 stack_update@i_428 0072                          ?___awdiv 0076  
                        ?___awmod 0070            __size_of_police_update 0034                  fp__police_update 0014  
                        ?___lwmod 0076                    _marquee_update 0427                         __pstrings 0015  
                       __pswtext1 0029                         __pswtext2 002F                         __pswtext3 0035  
                       __pswtext4 0038                 _ws2812_update_RGB 0252                ?_ws2812_update_RGB 0051  
           __size_of_random_value 001D         __end_of_ws2812_send_color 008C                       _breath_init 008C  
               _system_clock_init 00AB                     ?_twinkle_init 0070                    _twinkle_update 0714  
             ??_ws2812_update_RGB 0052                ?_system_clock_init 0070               stack_update@counter 003E  
                    ??_chase_init 0070                    ___wmul@product 0074                         delay_ms@i 0072  
                       delay_ms@j 0074            __size_of_breath_update 0083                  fp__breath_update 000F  
      ws2812_update_RGB@next_mode 0053                         clear_ram0 009A               __end_of_expand_init 01C6  
             __size_of_stack_init 001F               ??_system_clock_init 0070                   fp__chase_update 0010  
            __end_of_stack_update 0420                     ??_police_init 0070            __end_of_marquee_update 04A0  
       __end_of_ws2812_update_RGB 0283                      _random_value 0145                       __stringbase 001A  
               ___wmul@multiplier 0070                   _stack_lit_count 0040                __end_of_chase_init 0129  
                entry__stack_init 000C         __end_of_system_clock_init 00B5            __end_of_twinkle_update 07C3  
                  ??_twinkle_init 007B                     _police_update 021E                 ?_ws2812_gpio_init 0070  
                       key_scan@i 0058                   marquee_update@b 0079                   marquee_update@g 0078  
                 marquee_update@i 007C                   marquee_update@r 0077                ??_ws2812_gpio_init 0070  
                 ?_marquee_update 0070                  __size_of___awdiv 0045                  __size_of___awmod 003D  
                __size_of___lwmod 0024                     ?_chase_update 0070                __end_of__stringtab 001B  
                   _breath_update 04A0                    breath_update@b 0078                    breath_update@g 0077  
                  breath_update@i 007B                    breath_update@r 0076               __end_of_police_init 0145  
               ?_ws2812_send_byte 0070                          __fptable 0001                       _key_pressed 003A  
                        _delay_ms 00F2                ??_ws2812_send_byte 0070        __size_of_ws2812_send_color 0006  
                 ?_twinkle_update 0070                       _marquee_pos 0044                          __ptext10 00C0  
                        __ptext11 021E                          __ptext20 028D                          __ptext12 03C5  
                        __ptext21 00B5                          __ptext13 0427                          __ptext30 01C6  
                        __ptext22 0129                          __ptext14 064F                          __ptext31 00CB  
                        __ptext23 0162                          __ptext15 0528                          __ptext24 01EA  
                        __ptext16 04A0                          __ptext25 01A3                          __ptext17 0714  
                        __ptext26 010D                          __ptext18 02CA                          __ptext27 008C  
                        __ptext19 0145                          __ptext28 0368                          __ptext29 00D9  
                  ?_police_update 0070                       _expand_init 01A3                       _expand_seed 005F  
                     _expand_size 0048                       chase_init@i 0070                          _key_scan 030F  
                   __size_of_main 0022                          _expand_b 0046                          _expand_g 0047  
                        _expand_r 0060              ws2812_send_byte@byte 0070               marquee_update@i_415 007B  
                   ?_ws2812_reset 0070        __size_of_ws2812_update_RGB 0031                    ??_chase_update 0076  
                  ?_breath_update 0070                      _police_state 003D                      ??_stack_init 0070  
              expand_update@right 007A        __size_of_system_clock_init 000A                      police_init@i 0070  
           __end_of_expand_update 06FB         marquee_update@color_index 0042                   twinkle_update@i 0055  
                ___lwmod@dividend 0078                      ?_effect_init 0070             __size_of_stack_update 005B  
                  ??_ws2812_reset 0076                         stringcode 0015                    fp__breath_init 0008  
                   fp__chase_init 0009                __end_of_stack_init 0181              __end_of_twinkle_init 03B5  
                     _police_init 0129                     marquee_init@i 0070                   ___lwmod@divisor 0076  
                 ___lwmod@counter 007A                   ??_police_update 0070                          stringdir 0015  
                        stringtab 0015                      ?_breath_init 0070                     twinkle_init@i 007B  
                    _stack_target 005E                      _stack_update 03C5                      _stack_runner 0041  
                     _stack_delay 003F                       _power_state 005D  
